SF:D:\Cody\src\api.rs
FN:12,_RNvMNtCs4VwtuGktIK5_4Cody3apiNtB2_7CodyApi3new
FN:18,_RNvMNtCs4VwtuGktIK5_4Cody3apiNtB2_7CodyApi3run
FN:38,_RINvMNtCs4VwtuGktIK5_4Cody3apiNtB3_7CodyApi10handle_uciNtNtNtCs9RxnEpc5PHd_3std2io5stdio6StdoutEB5_
FN:126,_RINvMNtCs4VwtuGktIK5_4Cody3apiNtB3_7CodyApi12handle_benchNtNtNtCs9RxnEpc5PHd_3std2io5stdio6StdoutEB5_
FN:44,_RINvMNtCs4VwtuGktIK5_4Cody3apiNtB3_7CodyApi14handle_isreadyNtNtNtCs9RxnEpc5PHd_3std2io5stdio6StdoutEB5_
FN:176,_RINvMNtCs4VwtuGktIK5_4Cody3apiNtB3_7CodyApi14handle_newgameNtNtNtCs9RxnEpc5PHd_3std2io5stdio6StdoutEB5_
FN:48,_RINvMNtCs4VwtuGktIK5_4Cody3apiNtB3_7CodyApi15handle_positionNtNtNtCs9RxnEpc5PHd_3std2io5stdio6StdoutEB5_
FN:90,_RINvMNtCs4VwtuGktIK5_4Cody3apiNtB3_7CodyApi9handle_goNtNtNtCs9RxnEpc5PHd_3std2io5stdio6StdoutEB5_
FN:131,_RNCINvMNtCs4VwtuGktIK5_4Cody3apiNtB5_7CodyApi12handle_benchNtNtNtCs9RxnEpc5PHd_3std2io5stdio6StdoutE0B7_
FN:137,_RNCINvMNtCs4VwtuGktIK5_4Cody3apiNtB5_7CodyApi12handle_benchNtNtNtCs9RxnEpc5PHd_3std2io5stdio6StdoutEs_0B7_
FN:62,_RNCINvMNtCs4VwtuGktIK5_4Cody3apiNtB5_7CodyApi15handle_positionNtNtNtCs9RxnEpc5PHd_3std2io5stdio6StdoutE0B7_
FN:96,_RNCINvMNtCs4VwtuGktIK5_4Cody3apiNtB5_7CodyApi9handle_goNtNtNtCs9RxnEpc5PHd_3std2io5stdio6StdoutE0B7_
FN:38,_RINvMNtCsdycYMYUMDml_4Cody3apiNtB3_7CodyApi10handle_ucipEB5_
FN:126,_RINvMNtCsdycYMYUMDml_4Cody3apiNtB3_7CodyApi12handle_benchpEB5_
FN:44,_RINvMNtCsdycYMYUMDml_4Cody3apiNtB3_7CodyApi14handle_isreadypEB5_
FN:176,_RINvMNtCsdycYMYUMDml_4Cody3apiNtB3_7CodyApi14handle_newgamepEB5_
FN:48,_RINvMNtCsdycYMYUMDml_4Cody3apiNtB3_7CodyApi15handle_positionpEB5_
FN:90,_RINvMNtCsdycYMYUMDml_4Cody3apiNtB3_7CodyApi9handle_gopEB5_
FN:131,_RNCINvMNtCsdycYMYUMDml_4Cody3apiNtB5_7CodyApi12handle_benchpE0B7_
FN:137,_RNCINvMNtCsdycYMYUMDml_4Cody3apiNtB5_7CodyApi12handle_benchpEs_0B7_
FN:62,_RNCINvMNtCsdycYMYUMDml_4Cody3apiNtB5_7CodyApi15handle_positionpE0B7_
FN:96,_RNCINvMNtCsdycYMYUMDml_4Cody3apiNtB5_7CodyApi9handle_gopE0B7_
FN:12,_RNvMNtCsdycYMYUMDml_4Cody3apiNtB2_7CodyApi3new
FN:18,_RNvMNtCsdycYMYUMDml_4Cody3apiNtB2_7CodyApi3run
FNDA:0,_RNvMNtCs4VwtuGktIK5_4Cody3apiNtB2_7CodyApi3new
FNDA:0,_RNvMNtCs4VwtuGktIK5_4Cody3apiNtB2_7CodyApi3run
FNDA:0,_RINvMNtCs4VwtuGktIK5_4Cody3apiNtB3_7CodyApi10handle_uciNtNtNtCs9RxnEpc5PHd_3std2io5stdio6StdoutEB5_
FNDA:0,_RINvMNtCs4VwtuGktIK5_4Cody3apiNtB3_7CodyApi12handle_benchNtNtNtCs9RxnEpc5PHd_3std2io5stdio6StdoutEB5_
FNDA:0,_RINvMNtCs4VwtuGktIK5_4Cody3apiNtB3_7CodyApi14handle_isreadyNtNtNtCs9RxnEpc5PHd_3std2io5stdio6StdoutEB5_
FNDA:0,_RINvMNtCs4VwtuGktIK5_4Cody3apiNtB3_7CodyApi14handle_newgameNtNtNtCs9RxnEpc5PHd_3std2io5stdio6StdoutEB5_
FNDA:0,_RINvMNtCs4VwtuGktIK5_4Cody3apiNtB3_7CodyApi15handle_positionNtNtNtCs9RxnEpc5PHd_3std2io5stdio6StdoutEB5_
FNDA:0,_RINvMNtCs4VwtuGktIK5_4Cody3apiNtB3_7CodyApi9handle_goNtNtNtCs9RxnEpc5PHd_3std2io5stdio6StdoutEB5_
FNDA:0,_RNCINvMNtCs4VwtuGktIK5_4Cody3apiNtB5_7CodyApi12handle_benchNtNtNtCs9RxnEpc5PHd_3std2io5stdio6StdoutE0B7_
FNDA:0,_RNCINvMNtCs4VwtuGktIK5_4Cody3apiNtB5_7CodyApi12handle_benchNtNtNtCs9RxnEpc5PHd_3std2io5stdio6StdoutEs_0B7_
FNDA:0,_RNCINvMNtCs4VwtuGktIK5_4Cody3apiNtB5_7CodyApi15handle_positionNtNtNtCs9RxnEpc5PHd_3std2io5stdio6StdoutE0B7_
FNDA:0,_RNCINvMNtCs4VwtuGktIK5_4Cody3apiNtB5_7CodyApi9handle_goNtNtNtCs9RxnEpc5PHd_3std2io5stdio6StdoutE0B7_
FNDA:0,_RINvMNtCsdycYMYUMDml_4Cody3apiNtB3_7CodyApi10handle_ucipEB5_
FNDA:0,_RINvMNtCsdycYMYUMDml_4Cody3apiNtB3_7CodyApi12handle_benchpEB5_
FNDA:0,_RINvMNtCsdycYMYUMDml_4Cody3apiNtB3_7CodyApi14handle_isreadypEB5_
FNDA:0,_RINvMNtCsdycYMYUMDml_4Cody3apiNtB3_7CodyApi14handle_newgamepEB5_
FNDA:0,_RINvMNtCsdycYMYUMDml_4Cody3apiNtB3_7CodyApi15handle_positionpEB5_
FNDA:0,_RINvMNtCsdycYMYUMDml_4Cody3apiNtB3_7CodyApi9handle_gopEB5_
FNDA:0,_RNCINvMNtCsdycYMYUMDml_4Cody3apiNtB5_7CodyApi12handle_benchpE0B7_
FNDA:0,_RNCINvMNtCsdycYMYUMDml_4Cody3apiNtB5_7CodyApi12handle_benchpEs_0B7_
FNDA:0,_RNCINvMNtCsdycYMYUMDml_4Cody3apiNtB5_7CodyApi15handle_positionpE0B7_
FNDA:0,_RNCINvMNtCsdycYMYUMDml_4Cody3apiNtB5_7CodyApi9handle_gopE0B7_
FNDA:0,_RNvMNtCsdycYMYUMDml_4Cody3apiNtB2_7CodyApi3new
FNDA:0,_RNvMNtCsdycYMYUMDml_4Cody3apiNtB2_7CodyApi3run
FNF:12
FNH:0
DA:12,0
DA:13,0
DA:14,0
DA:15,0
DA:16,0
DA:18,0
DA:19,0
DA:20,0
DA:22,0
DA:23,0
DA:24,0
DA:25,0
DA:26,0
DA:27,0
DA:28,0
DA:29,0
DA:30,0
DA:31,0
DA:32,0
DA:34,0
DA:36,0
DA:38,0
DA:39,0
DA:40,0
DA:41,0
DA:42,0
DA:44,0
DA:45,0
DA:46,0
DA:48,0
DA:50,0
DA:52,0
DA:53,0
DA:54,0
DA:55,0
DA:56,0
DA:58,0
DA:59,0
DA:61,0
DA:62,0
DA:63,0
DA:64,0
DA:68,0
DA:72,0
DA:76,0
DA:77,0
DA:78,0
DA:80,0
DA:81,0
DA:82,0
DA:84,0
DA:88,0
DA:90,0
DA:92,0
DA:95,0
DA:96,0
DA:97,0
DA:98,0
DA:99,0
DA:100,0
DA:101,0
DA:104,0
DA:106,0
DA:107,0
DA:108,0
DA:109,0
DA:110,0
DA:112,0
DA:113,0
DA:114,0
DA:118,0
DA:121,0
DA:123,0
DA:124,0
DA:126,0
DA:127,0
DA:130,0
DA:131,0
DA:133,0
DA:134,0
DA:137,0
DA:139,0
DA:140,0
DA:141,0
DA:142,0
DA:143,0
DA:144,0
DA:145,0
DA:146,0
DA:147,0
DA:148,0
DA:149,0
DA:150,0
DA:151,0
DA:152,0
DA:153,0
DA:154,0
DA:155,0
DA:156,0
DA:157,0
DA:158,0
DA:159,0
DA:160,0
DA:161,0
DA:162,0
DA:163,0
DA:164,0
DA:166,0
DA:167,0
DA:169,0
DA:170,0
DA:171,0
DA:172,0
DA:173,0
DA:174,0
DA:176,0
DA:179,0
BRF:0
BRH:0
LF:121
LH:0
end_of_record
SF:D:\Cody\src\core\arena.rs
FN:39,_RNvMNtNtCsjCmoZIkrVfe_4cody4core5arenaNtB2_5Arena12get_pair_mut
FN:27,_RNvMNtNtCsjCmoZIkrVfe_4cody4core5arenaNtB2_5Arena3get
FN:11,_RNvMNtNtCsjCmoZIkrVfe_4cody4core5arenaNtB2_5Arena3new
FN:18,_RNvMNtNtCsjCmoZIkrVfe_4cody4core5arenaNtB2_5Arena5alloc
FN:35,_RNvMNtNtCsjCmoZIkrVfe_4cody4core5arenaNtB2_5Arena5reset
FN:31,_RNvMNtNtCsjCmoZIkrVfe_4cody4core5arenaNtB2_5Arena7get_mut
FN:39,_RNvMNtNtCs1XDxXB27MHs_4cody4core5arenaNtB2_5Arena12get_pair_mut
FN:27,_RNvMNtNtCs1XDxXB27MHs_4cody4core5arenaNtB2_5Arena3get
FN:11,_RNvMNtNtCs1XDxXB27MHs_4cody4core5arenaNtB2_5Arena3new
FN:18,_RNvMNtNtCs1XDxXB27MHs_4cody4core5arenaNtB2_5Arena5alloc
FN:35,_RNvMNtNtCs1XDxXB27MHs_4cody4core5arenaNtB2_5Arena5reset
FN:31,_RNvMNtNtCs1XDxXB27MHs_4cody4core5arenaNtB2_5Arena7get_mut
FNDA:206463,_RNvMNtNtCsjCmoZIkrVfe_4cody4core5arenaNtB2_5Arena12get_pair_mut
FNDA:200788,_RNvMNtNtCsjCmoZIkrVfe_4cody4core5arenaNtB2_5Arena3get
FNDA:47,_RNvMNtNtCsjCmoZIkrVfe_4cody4core5arenaNtB2_5Arena3new
FNDA:0,_RNvMNtNtCsjCmoZIkrVfe_4cody4core5arenaNtB2_5Arena5alloc
FNDA:47,_RNvMNtNtCsjCmoZIkrVfe_4cody4core5arenaNtB2_5Arena5reset
FNDA:47,_RNvMNtNtCsjCmoZIkrVfe_4cody4core5arenaNtB2_5Arena7get_mut
FNDA:0,_RNvMNtNtCs1XDxXB27MHs_4cody4core5arenaNtB2_5Arena12get_pair_mut
FNDA:0,_RNvMNtNtCs1XDxXB27MHs_4cody4core5arenaNtB2_5Arena3get
FNDA:0,_RNvMNtNtCs1XDxXB27MHs_4cody4core5arenaNtB2_5Arena3new
FNDA:0,_RNvMNtNtCs1XDxXB27MHs_4cody4core5arenaNtB2_5Arena5alloc
FNDA:0,_RNvMNtNtCs1XDxXB27MHs_4cody4core5arenaNtB2_5Arena5reset
FNDA:0,_RNvMNtNtCs1XDxXB27MHs_4cody4core5arenaNtB2_5Arena7get_mut
FNF:6
FNH:5
DA:11,47
DA:12,47
DA:13,47
DA:14,47
DA:15,47
DA:16,47
DA:18,0
DA:19,0
DA:20,0
DA:21,0
DA:22,0
DA:23,0
DA:24,0
DA:25,0
DA:27,200788
DA:28,200788
DA:29,200788
DA:31,47
DA:32,47
DA:33,47
DA:35,47
DA:36,47
DA:37,47
DA:39,206463
DA:40,206463
DA:41,206463
DA:42,206463
DA:43,206463
BRF:0
BRH:0
LF:28
LH:20
end_of_record
SF:D:\Cody\src\core\bitboard.rs
FN:285,_RNvMs_NtNtCsjCmoZIkrVfe_4cody4core8bitboardNtNtB6_12bitboardmask12BitBoardMask12diagonal_for
FN:289,_RNvMs_NtNtCsjCmoZIkrVfe_4cody4core8bitboardNtNtB6_12bitboardmask12BitBoardMask16antidiagonal_for
FN:85,_RNvNtNtCsjCmoZIkrVfe_4cody4core8bitboard12square_index
FN:92,_RNvNtNtCsjCmoZIkrVfe_4cody4core8bitboard16gen_king_attacksB5_
FN:206,_RNvNtNtCsjCmoZIkrVfe_4cody4core8bitboard17rook_attacks_fromB5_
FN:142,_RNvNtNtCsjCmoZIkrVfe_4cody4core8bitboard18knight_attacks_forB5_
FN:65,_RNvNtNtCsjCmoZIkrVfe_4cody4core8bitboard18occupancy_to_indexB5_
FN:300,_RNvNtNtCsjCmoZIkrVfe_4cody4core8bitboard19bishop_attacks_fromB5_
FN:53,_RNvXNtNtCsjCmoZIkrVfe_4cody4core8bitboardNtB2_7BitIterNtNtNtNtCs7CoZ09IQcyP_4core4iter6traits8iterator8Iterator4next
FN:285,_RNvMs_NtNtCs1XDxXB27MHs_4cody4core8bitboardNtNtB6_12bitboardmask12BitBoardMask12diagonal_for
FN:289,_RNvMs_NtNtCs1XDxXB27MHs_4cody4core8bitboardNtNtB6_12bitboardmask12BitBoardMask16antidiagonal_for
FN:295,_RNvNtNtCs1XDxXB27MHs_4cody4core8bitboard11bishop_maskB5_
FN:85,_RNvNtNtCs1XDxXB27MHs_4cody4core8bitboard12square_index
FN:92,_RNvNtNtCs1XDxXB27MHs_4cody4core8bitboard16gen_king_attacksB5_
FN:365,_RNvNtNtCs1XDxXB27MHs_4cody4core8bitboard17pawn_attacks_fromB5_
FN:206,_RNvNtNtCs1XDxXB27MHs_4cody4core8bitboard17rook_attacks_fromB5_
FN:142,_RNvNtNtCs1XDxXB27MHs_4cody4core8bitboard18knight_attacks_forB5_
FN:65,_RNvNtNtCs1XDxXB27MHs_4cody4core8bitboard18occupancy_to_indexB5_
FN:300,_RNvNtNtCs1XDxXB27MHs_4cody4core8bitboard19bishop_attacks_fromB5_
FN:382,_RNvNtNtCs1XDxXB27MHs_4cody4core8bitboard26generate_attacks_for_color
FN:185,_RNvNtNtCs1XDxXB27MHs_4cody4core8bitboard9rook_maskB5_
FN:53,_RNvXNtNtCs1XDxXB27MHs_4cody4core8bitboardNtB2_7BitIterNtNtNtNtCs7CoZ09IQcyP_4core4iter6traits8iterator8Iterator4next
FNDA:0,_RNvMs_NtNtCsjCmoZIkrVfe_4cody4core8bitboardNtNtB6_12bitboardmask12BitBoardMask12diagonal_for
FNDA:0,_RNvMs_NtNtCsjCmoZIkrVfe_4cody4core8bitboardNtNtB6_12bitboardmask12BitBoardMask16antidiagonal_for
FNDA:15243,_RNvNtNtCsjCmoZIkrVfe_4cody4core8bitboard12square_index
FNDA:2861,_RNvNtNtCsjCmoZIkrVfe_4cody4core8bitboard16gen_king_attacksB5_
FNDA:6639,_RNvNtNtCsjCmoZIkrVfe_4cody4core8bitboard17rook_attacks_fromB5_
FNDA:2984,_RNvNtNtCsjCmoZIkrVfe_4cody4core8bitboard18knight_attacks_forB5_
FNDA:0,_RNvNtNtCsjCmoZIkrVfe_4cody4core8bitboard18occupancy_to_indexB5_
FNDA:4868,_RNvNtNtCsjCmoZIkrVfe_4cody4core8bitboard19bishop_attacks_fromB5_
FNDA:0,_RNvXNtNtCsjCmoZIkrVfe_4cody4core8bitboardNtB2_7BitIterNtNtNtNtCs7CoZ09IQcyP_4core4iter6traits8iterator8Iterator4next
FNDA:0,_RNvMs_NtNtCs1XDxXB27MHs_4cody4core8bitboardNtNtB6_12bitboardmask12BitBoardMask12diagonal_for
FNDA:0,_RNvMs_NtNtCs1XDxXB27MHs_4cody4core8bitboardNtNtB6_12bitboardmask12BitBoardMask16antidiagonal_for
FNDA:0,_RNvNtNtCs1XDxXB27MHs_4cody4core8bitboard11bishop_maskB5_
FNDA:0,_RNvNtNtCs1XDxXB27MHs_4cody4core8bitboard12square_index
FNDA:0,_RNvNtNtCs1XDxXB27MHs_4cody4core8bitboard16gen_king_attacksB5_
FNDA:0,_RNvNtNtCs1XDxXB27MHs_4cody4core8bitboard17pawn_attacks_fromB5_
FNDA:0,_RNvNtNtCs1XDxXB27MHs_4cody4core8bitboard17rook_attacks_fromB5_
FNDA:0,_RNvNtNtCs1XDxXB27MHs_4cody4core8bitboard18knight_attacks_forB5_
FNDA:0,_RNvNtNtCs1XDxXB27MHs_4cody4core8bitboard18occupancy_to_indexB5_
FNDA:0,_RNvNtNtCs1XDxXB27MHs_4cody4core8bitboard19bishop_attacks_fromB5_
FNDA:0,_RNvNtNtCs1XDxXB27MHs_4cody4core8bitboard26generate_attacks_for_color
FNDA:0,_RNvNtNtCs1XDxXB27MHs_4cody4core8bitboard9rook_maskB5_
FNDA:0,_RNvXNtNtCs1XDxXB27MHs_4cody4core8bitboardNtB2_7BitIterNtNtNtNtCs7CoZ09IQcyP_4core4iter6traits8iterator8Iterator4next
FNF:13
FNH:5
DA:53,0
DA:54,0
DA:55,0
DA:57,0
DA:58,0
DA:59,0
DA:61,0
DA:65,0
DA:66,0
DA:67,0
DA:70,0
DA:71,0
DA:73,0
DA:74,0
DA:75,0
DA:76,0
DA:77,0
DA:78,0
DA:79,0
DA:82,0
DA:83,0
DA:85,15243
DA:86,15243
DA:87,15243
DA:88,15243
DA:89,15243
DA:92,2861
DA:93,2861
DA:94,2861
DA:95,2861
DA:108,2861
DA:109,25749
DA:110,22888
DA:111,22888
DA:112,22888
DA:114,22888
DA:115,19897
DA:116,16312
DA:117,16061
DA:118,15243
DA:119,15243
DA:120,15243
DA:121,15243
DA:123,22888
DA:126,2861
DA:127,2861
DA:142,2984
DA:143,2984
DA:146,2984
DA:147,2984
DA:148,2984
DA:149,2984
DA:151,2984
DA:152,2984
DA:153,2984
DA:154,2984
DA:157,2984
DA:158,2984
DA:160,2984
DA:161,2984
DA:185,0
DA:186,0
DA:187,0
DA:188,0
DA:190,0
DA:191,0
DA:206,6639
DA:207,6639
DA:210,6639
DA:211,6639
DA:212,6639
DA:213,6639
DA:214,6639
DA:217,6639
DA:218,6639
DA:219,6639
DA:220,6639
DA:221,6639
DA:223,6639
DA:224,6639
DA:285,0
DA:286,0
DA:287,0
DA:289,0
DA:290,0
DA:291,0
DA:295,0
DA:296,0
DA:297,0
DA:300,4868
DA:301,4868
DA:304,4868
DA:305,4868
DA:306,4868
DA:307,4868
DA:308,4868
DA:311,4868
DA:312,4868
DA:313,4868
DA:314,4868
DA:315,4868
DA:317,4868
DA:318,4868
DA:365,0
DA:366,0
DA:368,0
DA:370,0
DA:371,0
DA:372,0
DA:375,0
DA:376,0
DA:377,0
DA:380,0
DA:382,0
DA:383,0
DA:384,0
DA:386,0
DA:387,0
DA:388,0
DA:389,0
DA:390,0
DA:391,0
DA:392,0
BRF:0
BRH:0
LF:123
LH:67
end_of_record
SF:D:\Cody\src\core\bitboardmask.rs
FN:88,_RNvMNtNtCsjCmoZIkrVfe_4cody4core12bitboardmaskNtB2_12BitBoardMask10shift_left
FN:17,_RNvMNtNtCsjCmoZIkrVfe_4cody4core12bitboardmaskNtB2_12BitBoardMask11from_squareB6_
FN:50,_RNvMNtNtCsjCmoZIkrVfe_4cody4core12bitboardmaskNtB2_12BitBoardMask11is_nonemptyB6_
FN:92,_RNvMNtNtCsjCmoZIkrVfe_4cody4core12bitboardmaskNtB2_12BitBoardMask11shift_right
FN:112,_RNvMNtNtCsjCmoZIkrVfe_4cody4core12bitboardmaskNtB2_12BitBoardMask12from_squares
FN:96,_RNvMNtNtCsjCmoZIkrVfe_4cody4core12bitboardmaskNtB2_12BitBoardMask2or
FN:100,_RNvMNtNtCsjCmoZIkrVfe_4cody4core12bitboardmaskNtB2_12BitBoardMask3and
FN:108,_RNvMNtNtCsjCmoZIkrVfe_4cody4core12bitboardmaskNtB2_12BitBoardMask3not
FN:21,_RNvMNtNtCsjCmoZIkrVfe_4cody4core12bitboardmaskNtB2_12BitBoardMask3set
FN:104,_RNvMNtNtCsjCmoZIkrVfe_4cody4core12bitboardmaskNtB2_12BitBoardMask3xor
FN:25,_RNvMNtNtCsjCmoZIkrVfe_4cody4core12bitboardmaskNtB2_12BitBoardMask5clear
FN:12,_RNvMNtNtCsjCmoZIkrVfe_4cody4core12bitboardmaskNtB2_12BitBoardMask5emptyB6_
FN:61,_RNvMNtNtCsjCmoZIkrVfe_4cody4core12bitboardmaskNtB2_12BitBoardMask7squaresB6_
FN:84,_RNvMNtNtCsjCmoZIkrVfe_4cody4core12bitboardmaskNtB2_12BitBoardMask8contains
FN:30,_RNvMNtNtCsjCmoZIkrVfe_4cody4core12bitboardmaskNtB2_12BitBoardMask8is_emptyB6_
FN:234,_RNvMs8_NtNtCsjCmoZIkrVfe_4cody4core12bitboardmaskNtB5_12BitBoardMask11subray_down
FN:191,_RNvMs8_NtNtCsjCmoZIkrVfe_4cody4core12bitboardmaskNtB5_12BitBoardMask11subray_left
FN:204,_RNvMs8_NtNtCsjCmoZIkrVfe_4cody4core12bitboardmaskNtB5_12BitBoardMask12subray_right
FN:273,_RNvMs8_NtNtCsjCmoZIkrVfe_4cody4core12bitboardmaskNtB5_12BitBoardMask14subray_up_left
FN:247,_RNvMs8_NtNtCsjCmoZIkrVfe_4cody4core12bitboardmaskNtB5_12BitBoardMask15subray_up_right
FN:260,_RNvMs8_NtNtCsjCmoZIkrVfe_4cody4core12bitboardmaskNtB5_12BitBoardMask16subray_down_left
FN:286,_RNvMs8_NtNtCsjCmoZIkrVfe_4cody4core12bitboardmaskNtB5_12BitBoardMask17subray_down_right
FN:221,_RNvMs8_NtNtCsjCmoZIkrVfe_4cody4core12bitboardmaskNtB5_12BitBoardMask9subray_up
FN:136,_RNvXs0_NtNtCsjCmoZIkrVfe_4cody4core12bitboardmaskNtB5_12BitBoardMaskINtNtNtCs7CoZ09IQcyP_4core3ops3bit3ShraE3shr
FN:147,_RNvXs1_NtNtCsjCmoZIkrVfe_4cody4core12bitboardmaskNtB5_12BitBoardMaskNtNtNtCs7CoZ09IQcyP_4core3ops3bit6BitAnd6bitand
FN:153,_RNvXs2_NtNtCsjCmoZIkrVfe_4cody4core12bitboardmaskNtB5_12BitBoardMaskNtNtNtCs7CoZ09IQcyP_4core3ops3bit12BitAndAssign13bitand_assign
FN:160,_RNvXs3_NtNtCsjCmoZIkrVfe_4cody4core12bitboardmaskNtB5_12BitBoardMaskNtNtNtCs7CoZ09IQcyP_4core3ops3bit5BitOr5bitor
FN:166,_RNvXs4_NtNtCsjCmoZIkrVfe_4cody4core12bitboardmaskNtB5_12BitBoardMaskNtNtNtCs7CoZ09IQcyP_4core3ops3bit11BitOrAssign12bitor_assign
FN:173,_RNvXs5_NtNtCsjCmoZIkrVfe_4cody4core12bitboardmaskNtB5_12BitBoardMaskNtNtNtCs7CoZ09IQcyP_4core3ops3bit3Not3not
FN:179,_RNvXs6_NtNtCsjCmoZIkrVfe_4cody4core12bitboardmaskNtB5_12BitBoardMaskINtNtCs7CoZ09IQcyP_4core7convert4FromNtNtB7_6square6SquareE4from
FN:185,_RNvXs7_NtNtCsjCmoZIkrVfe_4cody4core12bitboardmaskNtB5_12BitBoardMaskINtNtCs7CoZ09IQcyP_4core7convert4FromyE4from
FN:125,_RNvXs_NtNtCsjCmoZIkrVfe_4cody4core12bitboardmaskNtB4_12BitBoardMaskINtNtNtCs7CoZ09IQcyP_4core3ops3bit3ShlaE3shl
FN:63,_RNCNvMNtNtCsjCmoZIkrVfe_4cody4core12bitboardmaskNtB4_12BitBoardMask7squares0B8_
FN:63,_RNCNvMNtNtCs1XDxXB27MHs_4cody4core12bitboardmaskNtB4_12BitBoardMask7squares0B8_
FN:40,_RNvMNtNtCs1XDxXB27MHs_4cody4core12bitboardmaskNtB2_12BitBoardMask10count_onesB6_
FN:88,_RNvMNtNtCs1XDxXB27MHs_4cody4core12bitboardmaskNtB2_12BitBoardMask10shift_left
FN:17,_RNvMNtNtCs1XDxXB27MHs_4cody4core12bitboardmaskNtB2_12BitBoardMask11from_squareB6_
FN:50,_RNvMNtNtCs1XDxXB27MHs_4cody4core12bitboardmaskNtB2_12BitBoardMask11is_nonemptyB6_
FN:92,_RNvMNtNtCs1XDxXB27MHs_4cody4core12bitboardmaskNtB2_12BitBoardMask11shift_right
FN:75,_RNvMNtNtCs1XDxXB27MHs_4cody4core12bitboardmaskNtB2_12BitBoardMask12first_squareB6_
FN:112,_RNvMNtNtCs1XDxXB27MHs_4cody4core12bitboardmaskNtB2_12BitBoardMask12from_squares
FN:45,_RNvMNtNtCs1XDxXB27MHs_4cody4core12bitboardmaskNtB2_12BitBoardMask12is_singletonB6_
FN:55,_RNvMNtNtCs1XDxXB27MHs_4cody4core12bitboardmaskNtB2_12BitBoardMask15contains_squareB6_
FN:96,_RNvMNtNtCs1XDxXB27MHs_4cody4core12bitboardmaskNtB2_12BitBoardMask2or
FN:100,_RNvMNtNtCs1XDxXB27MHs_4cody4core12bitboardmaskNtB2_12BitBoardMask3and
FN:108,_RNvMNtNtCs1XDxXB27MHs_4cody4core12bitboardmaskNtB2_12BitBoardMask3not
FN:21,_RNvMNtNtCs1XDxXB27MHs_4cody4core12bitboardmaskNtB2_12BitBoardMask3set
FN:104,_RNvMNtNtCs1XDxXB27MHs_4cody4core12bitboardmaskNtB2_12BitBoardMask3xor
FN:25,_RNvMNtNtCs1XDxXB27MHs_4cody4core12bitboardmaskNtB2_12BitBoardMask5clear
FN:35,_RNvMNtNtCs1XDxXB27MHs_4cody4core12bitboardmaskNtB2_12BitBoardMask5countB6_
FN:12,_RNvMNtNtCs1XDxXB27MHs_4cody4core12bitboardmaskNtB2_12BitBoardMask5emptyB6_
FN:61,_RNvMNtNtCs1XDxXB27MHs_4cody4core12bitboardmaskNtB2_12BitBoardMask7squaresB6_
FN:84,_RNvMNtNtCs1XDxXB27MHs_4cody4core12bitboardmaskNtB2_12BitBoardMask8contains
FN:30,_RNvMNtNtCs1XDxXB27MHs_4cody4core12bitboardmaskNtB2_12BitBoardMask8is_emptyB6_
FN:234,_RNvMs8_NtNtCs1XDxXB27MHs_4cody4core12bitboardmaskNtB5_12BitBoardMask11subray_down
FN:191,_RNvMs8_NtNtCs1XDxXB27MHs_4cody4core12bitboardmaskNtB5_12BitBoardMask11subray_left
FN:204,_RNvMs8_NtNtCs1XDxXB27MHs_4cody4core12bitboardmaskNtB5_12BitBoardMask12subray_right
FN:273,_RNvMs8_NtNtCs1XDxXB27MHs_4cody4core12bitboardmaskNtB5_12BitBoardMask14subray_up_left
FN:247,_RNvMs8_NtNtCs1XDxXB27MHs_4cody4core12bitboardmaskNtB5_12BitBoardMask15subray_up_right
FN:260,_RNvMs8_NtNtCs1XDxXB27MHs_4cody4core12bitboardmaskNtB5_12BitBoardMask16subray_down_left
FN:286,_RNvMs8_NtNtCs1XDxXB27MHs_4cody4core12bitboardmaskNtB5_12BitBoardMask17subray_down_right
FN:221,_RNvMs8_NtNtCs1XDxXB27MHs_4cody4core12bitboardmaskNtB5_12BitBoardMask9subray_up
FN:136,_RNvXs0_NtNtCs1XDxXB27MHs_4cody4core12bitboardmaskNtB5_12BitBoardMaskINtNtNtCs7CoZ09IQcyP_4core3ops3bit3ShraE3shr
FN:147,_RNvXs1_NtNtCs1XDxXB27MHs_4cody4core12bitboardmaskNtB5_12BitBoardMaskNtNtNtCs7CoZ09IQcyP_4core3ops3bit6BitAnd6bitand
FN:153,_RNvXs2_NtNtCs1XDxXB27MHs_4cody4core12bitboardmaskNtB5_12BitBoardMaskNtNtNtCs7CoZ09IQcyP_4core3ops3bit12BitAndAssign13bitand_assign
FN:160,_RNvXs3_NtNtCs1XDxXB27MHs_4cody4core12bitboardmaskNtB5_12BitBoardMaskNtNtNtCs7CoZ09IQcyP_4core3ops3bit5BitOr5bitor
FN:166,_RNvXs4_NtNtCs1XDxXB27MHs_4cody4core12bitboardmaskNtB5_12BitBoardMaskNtNtNtCs7CoZ09IQcyP_4core3ops3bit11BitOrAssign12bitor_assign
FN:173,_RNvXs5_NtNtCs1XDxXB27MHs_4cody4core12bitboardmaskNtB5_12BitBoardMaskNtNtNtCs7CoZ09IQcyP_4core3ops3bit3Not3not
FN:179,_RNvXs6_NtNtCs1XDxXB27MHs_4cody4core12bitboardmaskNtB5_12BitBoardMaskINtNtCs7CoZ09IQcyP_4core7convert4FromNtNtB7_6square6SquareE4from
FN:185,_RNvXs7_NtNtCs1XDxXB27MHs_4cody4core12bitboardmaskNtB5_12BitBoardMaskINtNtCs7CoZ09IQcyP_4core7convert4FromyE4from
FN:125,_RNvXs_NtNtCs1XDxXB27MHs_4cody4core12bitboardmaskNtB4_12BitBoardMaskINtNtNtCs7CoZ09IQcyP_4core3ops3bit3ShlaE3shl
FNDA:100746,_RNvMNtNtCsjCmoZIkrVfe_4cody4core12bitboardmaskNtB2_12BitBoardMask10shift_left
FNDA:424052,_RNvMNtNtCsjCmoZIkrVfe_4cody4core12bitboardmaskNtB2_12BitBoardMask11from_squareB6_
FNDA:1822070,_RNvMNtNtCsjCmoZIkrVfe_4cody4core12bitboardmaskNtB2_12BitBoardMask11is_nonemptyB6_
FNDA:156512,_RNvMNtNtCsjCmoZIkrVfe_4cody4core12bitboardmaskNtB2_12BitBoardMask11shift_right
FNDA:0,_RNvMNtNtCsjCmoZIkrVfe_4cody4core12bitboardmaskNtB2_12BitBoardMask12from_squares
FNDA:255115,_RNvMNtNtCsjCmoZIkrVfe_4cody4core12bitboardmaskNtB2_12BitBoardMask2or
FNDA:262423,_RNvMNtNtCsjCmoZIkrVfe_4cody4core12bitboardmaskNtB2_12BitBoardMask3and
FNDA:0,_RNvMNtNtCsjCmoZIkrVfe_4cody4core12bitboardmaskNtB2_12BitBoardMask3not
FNDA:0,_RNvMNtNtCsjCmoZIkrVfe_4cody4core12bitboardmaskNtB2_12BitBoardMask3set
FNDA:0,_RNvMNtNtCsjCmoZIkrVfe_4cody4core12bitboardmaskNtB2_12BitBoardMask3xor
FNDA:0,_RNvMNtNtCsjCmoZIkrVfe_4cody4core12bitboardmaskNtB2_12BitBoardMask5clear
FNDA:459011,_RNvMNtNtCsjCmoZIkrVfe_4cody4core12bitboardmaskNtB2_12BitBoardMask5emptyB6_
FNDA:40761,_RNvMNtNtCsjCmoZIkrVfe_4cody4core12bitboardmaskNtB2_12BitBoardMask7squaresB6_
FNDA:0,_RNvMNtNtCsjCmoZIkrVfe_4cody4core12bitboardmaskNtB2_12BitBoardMask8contains
FNDA:2861,_RNvMNtNtCsjCmoZIkrVfe_4cody4core12bitboardmaskNtB2_12BitBoardMask8is_emptyB6_
FNDA:6639,_RNvMs8_NtNtCsjCmoZIkrVfe_4cody4core12bitboardmaskNtB5_12BitBoardMask11subray_down
FNDA:6639,_RNvMs8_NtNtCsjCmoZIkrVfe_4cody4core12bitboardmaskNtB5_12BitBoardMask11subray_left
FNDA:6639,_RNvMs8_NtNtCsjCmoZIkrVfe_4cody4core12bitboardmaskNtB5_12BitBoardMask12subray_right
FNDA:4868,_RNvMs8_NtNtCsjCmoZIkrVfe_4cody4core12bitboardmaskNtB5_12BitBoardMask14subray_up_left
FNDA:4868,_RNvMs8_NtNtCsjCmoZIkrVfe_4cody4core12bitboardmaskNtB5_12BitBoardMask15subray_up_right
FNDA:4868,_RNvMs8_NtNtCsjCmoZIkrVfe_4cody4core12bitboardmaskNtB5_12BitBoardMask16subray_down_left
FNDA:4868,_RNvMs8_NtNtCsjCmoZIkrVfe_4cody4core12bitboardmaskNtB5_12BitBoardMask17subray_down_right
FNDA:6639,_RNvMs8_NtNtCsjCmoZIkrVfe_4cody4core12bitboardmaskNtB5_12BitBoardMask9subray_up
FNDA:0,_RNvXs0_NtNtCsjCmoZIkrVfe_4cody4core12bitboardmaskNtB5_12BitBoardMaskINtNtNtCs7CoZ09IQcyP_4core3ops3bit3ShraE3shr
FNDA:1629525,_RNvXs1_NtNtCsjCmoZIkrVfe_4cody4core12bitboardmaskNtB5_12BitBoardMaskNtNtNtCs7CoZ09IQcyP_4core3ops3bit6BitAnd6bitand
FNDA:203602,_RNvXs2_NtNtCsjCmoZIkrVfe_4cody4core12bitboardmaskNtB5_12BitBoardMaskNtNtNtCs7CoZ09IQcyP_4core3ops3bit12BitAndAssign13bitand_assign
FNDA:205794,_RNvXs3_NtNtCsjCmoZIkrVfe_4cody4core12bitboardmaskNtB5_12BitBoardMaskNtNtNtCs7CoZ09IQcyP_4core3ops3bit5BitOr5bitor
FNDA:2688007,_RNvXs4_NtNtCsjCmoZIkrVfe_4cody4core12bitboardmaskNtB5_12BitBoardMaskNtNtNtCs7CoZ09IQcyP_4core3ops3bit11BitOrAssign12bitor_assign
FNDA:214935,_RNvXs5_NtNtCsjCmoZIkrVfe_4cody4core12bitboardmaskNtB5_12BitBoardMaskNtNtNtCs7CoZ09IQcyP_4core3ops3bit3Not3not
FNDA:0,_RNvXs6_NtNtCsjCmoZIkrVfe_4cody4core12bitboardmaskNtB5_12BitBoardMaskINtNtCs7CoZ09IQcyP_4core7convert4FromNtNtB7_6square6SquareE4from
FNDA:0,_RNvXs7_NtNtCsjCmoZIkrVfe_4cody4core12bitboardmaskNtB5_12BitBoardMaskINtNtCs7CoZ09IQcyP_4core7convert4FromyE4from
FNDA:11296,_RNvXs_NtNtCsjCmoZIkrVfe_4cody4core12bitboardmaskNtB4_12BitBoardMaskINtNtNtCs7CoZ09IQcyP_4core3ops3bit3ShlaE3shl
FNDA:256662,_RNCNvMNtNtCsjCmoZIkrVfe_4cody4core12bitboardmaskNtB4_12BitBoardMask7squares0B8_
FNDA:0,_RNCNvMNtNtCs1XDxXB27MHs_4cody4core12bitboardmaskNtB4_12BitBoardMask7squares0B8_
FNDA:0,_RNvMNtNtCs1XDxXB27MHs_4cody4core12bitboardmaskNtB2_12BitBoardMask10count_onesB6_
FNDA:0,_RNvMNtNtCs1XDxXB27MHs_4cody4core12bitboardmaskNtB2_12BitBoardMask10shift_left
FNDA:0,_RNvMNtNtCs1XDxXB27MHs_4cody4core12bitboardmaskNtB2_12BitBoardMask11from_squareB6_
FNDA:0,_RNvMNtNtCs1XDxXB27MHs_4cody4core12bitboardmaskNtB2_12BitBoardMask11is_nonemptyB6_
FNDA:0,_RNvMNtNtCs1XDxXB27MHs_4cody4core12bitboardmaskNtB2_12BitBoardMask11shift_right
FNDA:0,_RNvMNtNtCs1XDxXB27MHs_4cody4core12bitboardmaskNtB2_12BitBoardMask12first_squareB6_
FNDA:0,_RNvMNtNtCs1XDxXB27MHs_4cody4core12bitboardmaskNtB2_12BitBoardMask12from_squares
FNDA:0,_RNvMNtNtCs1XDxXB27MHs_4cody4core12bitboardmaskNtB2_12BitBoardMask12is_singletonB6_
FNDA:0,_RNvMNtNtCs1XDxXB27MHs_4cody4core12bitboardmaskNtB2_12BitBoardMask15contains_squareB6_
FNDA:0,_RNvMNtNtCs1XDxXB27MHs_4cody4core12bitboardmaskNtB2_12BitBoardMask2or
FNDA:0,_RNvMNtNtCs1XDxXB27MHs_4cody4core12bitboardmaskNtB2_12BitBoardMask3and
FNDA:0,_RNvMNtNtCs1XDxXB27MHs_4cody4core12bitboardmaskNtB2_12BitBoardMask3not
FNDA:0,_RNvMNtNtCs1XDxXB27MHs_4cody4core12bitboardmaskNtB2_12BitBoardMask3set
FNDA:0,_RNvMNtNtCs1XDxXB27MHs_4cody4core12bitboardmaskNtB2_12BitBoardMask3xor
FNDA:0,_RNvMNtNtCs1XDxXB27MHs_4cody4core12bitboardmaskNtB2_12BitBoardMask5clear
FNDA:0,_RNvMNtNtCs1XDxXB27MHs_4cody4core12bitboardmaskNtB2_12BitBoardMask5countB6_
FNDA:0,_RNvMNtNtCs1XDxXB27MHs_4cody4core12bitboardmaskNtB2_12BitBoardMask5emptyB6_
FNDA:0,_RNvMNtNtCs1XDxXB27MHs_4cody4core12bitboardmaskNtB2_12BitBoardMask7squaresB6_
FNDA:0,_RNvMNtNtCs1XDxXB27MHs_4cody4core12bitboardmaskNtB2_12BitBoardMask8contains
FNDA:0,_RNvMNtNtCs1XDxXB27MHs_4cody4core12bitboardmaskNtB2_12BitBoardMask8is_emptyB6_
FNDA:0,_RNvMs8_NtNtCs1XDxXB27MHs_4cody4core12bitboardmaskNtB5_12BitBoardMask11subray_down
FNDA:0,_RNvMs8_NtNtCs1XDxXB27MHs_4cody4core12bitboardmaskNtB5_12BitBoardMask11subray_left
FNDA:0,_RNvMs8_NtNtCs1XDxXB27MHs_4cody4core12bitboardmaskNtB5_12BitBoardMask12subray_right
FNDA:0,_RNvMs8_NtNtCs1XDxXB27MHs_4cody4core12bitboardmaskNtB5_12BitBoardMask14subray_up_left
FNDA:0,_RNvMs8_NtNtCs1XDxXB27MHs_4cody4core12bitboardmaskNtB5_12BitBoardMask15subray_up_right
FNDA:0,_RNvMs8_NtNtCs1XDxXB27MHs_4cody4core12bitboardmaskNtB5_12BitBoardMask16subray_down_left
FNDA:0,_RNvMs8_NtNtCs1XDxXB27MHs_4cody4core12bitboardmaskNtB5_12BitBoardMask17subray_down_right
FNDA:0,_RNvMs8_NtNtCs1XDxXB27MHs_4cody4core12bitboardmaskNtB5_12BitBoardMask9subray_up
FNDA:0,_RNvXs0_NtNtCs1XDxXB27MHs_4cody4core12bitboardmaskNtB5_12BitBoardMaskINtNtNtCs7CoZ09IQcyP_4core3ops3bit3ShraE3shr
FNDA:0,_RNvXs1_NtNtCs1XDxXB27MHs_4cody4core12bitboardmaskNtB5_12BitBoardMaskNtNtNtCs7CoZ09IQcyP_4core3ops3bit6BitAnd6bitand
FNDA:0,_RNvXs2_NtNtCs1XDxXB27MHs_4cody4core12bitboardmaskNtB5_12BitBoardMaskNtNtNtCs7CoZ09IQcyP_4core3ops3bit12BitAndAssign13bitand_assign
FNDA:0,_RNvXs3_NtNtCs1XDxXB27MHs_4cody4core12bitboardmaskNtB5_12BitBoardMaskNtNtNtCs7CoZ09IQcyP_4core3ops3bit5BitOr5bitor
FNDA:0,_RNvXs4_NtNtCs1XDxXB27MHs_4cody4core12bitboardmaskNtB5_12BitBoardMaskNtNtNtCs7CoZ09IQcyP_4core3ops3bit11BitOrAssign12bitor_assign
FNDA:0,_RNvXs5_NtNtCs1XDxXB27MHs_4cody4core12bitboardmaskNtB5_12BitBoardMaskNtNtNtCs7CoZ09IQcyP_4core3ops3bit3Not3not
FNDA:0,_RNvXs6_NtNtCs1XDxXB27MHs_4cody4core12bitboardmaskNtB5_12BitBoardMaskINtNtCs7CoZ09IQcyP_4core7convert4FromNtNtB7_6square6SquareE4from
FNDA:0,_RNvXs7_NtNtCs1XDxXB27MHs_4cody4core12bitboardmaskNtB5_12BitBoardMaskINtNtCs7CoZ09IQcyP_4core7convert4FromyE4from
FNDA:0,_RNvXs_NtNtCs1XDxXB27MHs_4cody4core12bitboardmaskNtB4_12BitBoardMaskINtNtNtCs7CoZ09IQcyP_4core3ops3bit3ShlaE3shl
FNF:38
FNH:24
DA:12,459011
DA:13,459011
DA:14,459011
DA:17,424052
DA:18,424052
DA:19,424052
DA:21,0
DA:22,0
DA:23,0
DA:25,0
DA:26,0
DA:27,0
DA:30,2861
DA:31,2861
DA:32,2861
DA:35,0
DA:36,0
DA:37,0
DA:40,0
DA:41,0
DA:42,0
DA:45,0
DA:46,0
DA:47,0
DA:50,1822070
DA:51,1822070
DA:52,1822070
DA:55,0
DA:56,0
DA:57,0
DA:61,40761
DA:62,40761
DA:63,256662
DA:64,256662
DA:65,37900
DA:67,218762
DA:68,218762
DA:69,218762
DA:71,256662
DA:72,40761
DA:75,0
DA:76,0
DA:77,0
DA:79,0
DA:80,0
DA:82,0
DA:84,0
DA:85,0
DA:86,0
DA:88,100746
DA:89,100746
DA:90,100746
DA:92,156512
DA:93,156512
DA:94,156512
DA:96,255115
DA:97,255115
DA:98,255115
DA:100,262423
DA:101,262423
DA:102,262423
DA:104,0
DA:105,0
DA:106,0
DA:108,0
DA:109,0
DA:110,0
DA:112,0
DA:113,0
DA:114,0
DA:115,0
DA:116,0
DA:117,0
DA:118,0
DA:119,0
DA:120,0
DA:125,11296
DA:126,11296
DA:127,4152
DA:129,7144
DA:131,11296
DA:136,0
DA:137,0
DA:138,0
DA:140,0
DA:142,0
DA:147,1629525
DA:148,1629525
DA:149,1629525
DA:153,203602
DA:154,203602
DA:155,203602
DA:160,205794
DA:161,205794
DA:162,205794
DA:166,2688007
DA:167,2688007
DA:168,2688007
DA:173,214935
DA:174,214935
DA:175,214935
DA:179,0
DA:180,0
DA:181,0
DA:185,0
DA:186,0
DA:187,0
DA:191,6639
DA:192,6639
DA:193,6639
DA:194,103470
DA:195,100769
DA:196,100769
DA:197,3938
DA:198,96831
DA:199,96831
DA:201,6639
DA:202,6639
DA:204,6639
DA:205,6639
DA:206,6639
DA:208,6639
DA:209,51145
DA:210,49498
DA:211,49498
DA:212,4992
DA:213,44506
DA:214,44506
DA:216,44506
DA:218,6639
DA:219,6639
DA:221,6639
DA:222,6639
DA:223,6639
DA:224,13259
DA:225,9951
DA:226,9951
DA:227,3331
DA:228,6620
DA:229,6620
DA:231,6639
DA:232,6639
DA:234,6639
DA:235,6639
DA:236,6639
DA:237,12466
DA:238,9972
DA:239,9972
DA:240,4145
DA:241,5827
DA:242,5827
DA:244,6639
DA:245,6639
DA:247,4868
DA:248,4868
DA:249,4868
DA:250,11108
DA:251,8211
DA:252,8211
DA:253,1971
DA:254,6240
DA:255,6240
DA:257,4868
DA:258,4868
DA:260,4868
DA:261,4868
DA:262,4868
DA:263,12318
DA:264,10030
DA:265,10030
DA:266,2580
DA:267,7450
DA:268,7450
DA:270,4868
DA:271,4868
DA:273,4868
DA:274,4868
DA:275,4868
DA:276,13298
DA:277,10181
DA:278,10181
DA:279,1751
DA:280,8430
DA:281,8430
DA:283,4868
DA:284,4868
DA:286,4868
DA:287,4868
DA:288,4868
DA:289,16322
DA:290,13701
DA:291,13701
DA:292,2247
DA:293,11454
DA:294,11454
DA:296,4868
DA:297,4868
BRF:0
BRH:0
LF:198
LH:145
end_of_record
SF:D:\Cody\src\core\castling.rs
FN:66,_RNvMNtNtCsjCmoZIkrVfe_4cody4core8castlingNtB2_14CastlingRights5clear
FN:13,_RNvMNtNtCsjCmoZIkrVfe_4cody4core8castlingNtB2_14CastlingRights5empty
FN:39,_RNvMNtNtCsjCmoZIkrVfe_4cody4core8castlingNtB2_14CastlingRights6to_fen
FN:22,_RNvMNtNtCsjCmoZIkrVfe_4cody4core8castlingNtB2_14CastlingRights8from_fen
FN:66,_RNvMNtNtCs1XDxXB27MHs_4cody4core8castlingNtB2_14CastlingRights5clear
FN:13,_RNvMNtNtCs1XDxXB27MHs_4cody4core8castlingNtB2_14CastlingRights5empty
FN:39,_RNvMNtNtCs1XDxXB27MHs_4cody4core8castlingNtB2_14CastlingRights6to_fen
FN:59,_RNvMNtNtCs1XDxXB27MHs_4cody4core8castlingNtB2_14CastlingRights7to_bits
FN:22,_RNvMNtNtCs1XDxXB27MHs_4cody4core8castlingNtB2_14CastlingRights8from_fen
FNDA:75475,_RNvMNtNtCsjCmoZIkrVfe_4cody4core8castlingNtB2_14CastlingRights5clear
FNDA:188,_RNvMNtNtCsjCmoZIkrVfe_4cody4core8castlingNtB2_14CastlingRights5empty
FNDA:0,_RNvMNtNtCsjCmoZIkrVfe_4cody4core8castlingNtB2_14CastlingRights6to_fen
FNDA:94,_RNvMNtNtCsjCmoZIkrVfe_4cody4core8castlingNtB2_14CastlingRights8from_fen
FNDA:0,_RNvMNtNtCs1XDxXB27MHs_4cody4core8castlingNtB2_14CastlingRights5clear
FNDA:0,_RNvMNtNtCs1XDxXB27MHs_4cody4core8castlingNtB2_14CastlingRights5empty
FNDA:0,_RNvMNtNtCs1XDxXB27MHs_4cody4core8castlingNtB2_14CastlingRights6to_fen
FNDA:0,_RNvMNtNtCs1XDxXB27MHs_4cody4core8castlingNtB2_14CastlingRights7to_bits
FNDA:0,_RNvMNtNtCs1XDxXB27MHs_4cody4core8castlingNtB2_14CastlingRights8from_fen
FNF:5
FNH:3
DA:13,188
DA:14,188
DA:15,188
DA:16,188
DA:17,188
DA:18,188
DA:19,188
DA:20,188
DA:22,94
DA:23,94
DA:24,94
DA:25,50
DA:26,50
DA:27,94
DA:28,50
DA:29,50
DA:30,94
DA:31,51
DA:32,51
DA:33,94
DA:34,51
DA:35,51
DA:36,94
DA:37,94
DA:39,0
DA:40,0
DA:41,0
DA:42,0
DA:43,0
DA:44,0
DA:45,0
DA:46,0
DA:47,0
DA:48,0
DA:49,0
DA:50,0
DA:51,0
DA:52,0
DA:53,0
DA:54,0
DA:55,0
DA:56,0
DA:57,0
DA:59,0
DA:60,0
DA:61,0
DA:62,0
DA:63,0
DA:64,0
DA:66,75475
DA:67,75475
DA:68,13293
DA:69,6768
DA:70,13810
DA:71,41604
DA:73,75475
BRF:0
BRH:0
LF:56
LH:31
end_of_record
SF:D:\Cody\src\core\mov.rs
FN:37,_RNvMNtNtCsjCmoZIkrVfe_4cody4core3movNtB2_4Move2to
FN:15,_RNvMNtNtCsjCmoZIkrVfe_4cody4core3movNtB2_4Move3new
FN:33,_RNvMNtNtCsjCmoZIkrVfe_4cody4core3movNtB2_4Move4from
FN:24,_RNvMNtNtCsjCmoZIkrVfe_4cody4core3movNtB2_4Move4null
FN:41,_RNvMNtNtCsjCmoZIkrVfe_4cody4core3movNtB2_4Move9promotion
FN:47,_RNvMs_NtNtCsjCmoZIkrVfe_4cody4core3movNtB4_4Move11from_square
FN:51,_RNvMs_NtNtCsjCmoZIkrVfe_4cody4core3movNtB4_4Move9to_square
FN:56,_RNvNtNtCsjCmoZIkrVfe_4cody4core3mov16square_to_string
FN:61,_RNvXs0_NtNtCsjCmoZIkrVfe_4cody4core3movNtB5_4MoveNtNtCs7CoZ09IQcyP_4core3fmt7Display3fmt
FN:37,_RNvMNtNtCs1XDxXB27MHs_4cody4core3movNtB2_4Move2to
FN:15,_RNvMNtNtCs1XDxXB27MHs_4cody4core3movNtB2_4Move3new
FN:33,_RNvMNtNtCs1XDxXB27MHs_4cody4core3movNtB2_4Move4from
FN:24,_RNvMNtNtCs1XDxXB27MHs_4cody4core3movNtB2_4Move4null
FN:41,_RNvMNtNtCs1XDxXB27MHs_4cody4core3movNtB2_4Move9promotion
FN:47,_RNvMs_NtNtCs1XDxXB27MHs_4cody4core3movNtB4_4Move11from_square
FN:51,_RNvMs_NtNtCs1XDxXB27MHs_4cody4core3movNtB4_4Move9to_square
FN:56,_RNvNtNtCs1XDxXB27MHs_4cody4core3mov16square_to_string
FN:61,_RNvXs0_NtNtCs1XDxXB27MHs_4cody4core3movNtB5_4MoveNtNtCs7CoZ09IQcyP_4core3fmt7Display3fmt
FNDA:0,_RNvMNtNtCsjCmoZIkrVfe_4cody4core3movNtB2_4Move2to
FNDA:203602,_RNvMNtNtCsjCmoZIkrVfe_4cody4core3movNtB2_4Move3new
FNDA:0,_RNvMNtNtCsjCmoZIkrVfe_4cody4core3movNtB2_4Move4from
FNDA:47,_RNvMNtNtCsjCmoZIkrVfe_4cody4core3movNtB2_4Move4null
FNDA:0,_RNvMNtNtCsjCmoZIkrVfe_4cody4core3movNtB2_4Move9promotion
FNDA:0,_RNvMs_NtNtCsjCmoZIkrVfe_4cody4core3movNtB4_4Move11from_square
FNDA:0,_RNvMs_NtNtCsjCmoZIkrVfe_4cody4core3movNtB4_4Move9to_square
FNDA:0,_RNvNtNtCsjCmoZIkrVfe_4cody4core3mov16square_to_string
FNDA:0,_RNvXs0_NtNtCsjCmoZIkrVfe_4cody4core3movNtB5_4MoveNtNtCs7CoZ09IQcyP_4core3fmt7Display3fmt
FNDA:0,_RNvMNtNtCs1XDxXB27MHs_4cody4core3movNtB2_4Move2to
FNDA:0,_RNvMNtNtCs1XDxXB27MHs_4cody4core3movNtB2_4Move3new
FNDA:0,_RNvMNtNtCs1XDxXB27MHs_4cody4core3movNtB2_4Move4from
FNDA:0,_RNvMNtNtCs1XDxXB27MHs_4cody4core3movNtB2_4Move4null
FNDA:0,_RNvMNtNtCs1XDxXB27MHs_4cody4core3movNtB2_4Move9promotion
FNDA:0,_RNvMs_NtNtCs1XDxXB27MHs_4cody4core3movNtB4_4Move11from_square
FNDA:0,_RNvMs_NtNtCs1XDxXB27MHs_4cody4core3movNtB4_4Move9to_square
FNDA:0,_RNvNtNtCs1XDxXB27MHs_4cody4core3mov16square_to_string
FNDA:0,_RNvXs0_NtNtCs1XDxXB27MHs_4cody4core3movNtB5_4MoveNtNtCs7CoZ09IQcyP_4core3fmt7Display3fmt
FNF:9
FNH:2
DA:15,203602
DA:16,203602
DA:17,203602
DA:18,203602
DA:19,203602
DA:20,203602
DA:21,203602
DA:22,203602
DA:24,47
DA:25,47
DA:26,47
DA:27,47
DA:28,47
DA:29,47
DA:30,47
DA:31,47
DA:33,0
DA:34,0
DA:35,0
DA:37,0
DA:38,0
DA:39,0
DA:41,0
DA:42,0
DA:43,0
DA:47,0
DA:48,0
DA:49,0
DA:51,0
DA:52,0
DA:53,0
DA:56,0
DA:57,0
DA:58,0
DA:61,0
DA:62,0
DA:63,0
BRF:0
BRH:0
LF:37
LH:16
end_of_record
SF:D:\Cody\src\core\occupancy.rs
FN:20,_RNvMNtNtCsjCmoZIkrVfe_4cody4core9occupancyNtB2_12OccupancyMap3newB6_
FN:37,_RNvMNtNtCsjCmoZIkrVfe_4cody4core9occupancyNtB2_12OccupancyMap5or_inB6_
FN:55,_RNvXs0_NtNtCsjCmoZIkrVfe_4cody4core9occupancyNtB5_12OccupancyMapINtNtNtCs7CoZ09IQcyP_4core3ops5index5IndexNtB5_13OccupancyKindE5index
FN:61,_RNvXs1_NtNtCsjCmoZIkrVfe_4cody4core9occupancyNtB5_12OccupancyMapINtNtNtCs7CoZ09IQcyP_4core3ops5index8IndexMutNtB5_13OccupancyKindE9index_mut
FN:48,_RNvXs_NtNtCsjCmoZIkrVfe_4cody4core9occupancyNtB4_12OccupancyMapNtNtCs7CoZ09IQcyP_4core7default7Default7default
FN:27,_RNvMNtNtCs1XDxXB27MHs_4cody4core9occupancyNtB2_12OccupancyMap3getB6_
FN:20,_RNvMNtNtCs1XDxXB27MHs_4cody4core9occupancyNtB2_12OccupancyMap3newB6_
FN:32,_RNvMNtNtCs1XDxXB27MHs_4cody4core9occupancyNtB2_12OccupancyMap3setB6_
FN:42,_RNvMNtNtCs1XDxXB27MHs_4cody4core9occupancyNtB2_12OccupancyMap5clearB6_
FN:37,_RNvMNtNtCs1XDxXB27MHs_4cody4core9occupancyNtB2_12OccupancyMap5or_inB6_
FN:55,_RNvXs0_NtNtCs1XDxXB27MHs_4cody4core9occupancyNtB5_12OccupancyMapINtNtNtCs7CoZ09IQcyP_4core3ops5index5IndexNtB5_13OccupancyKindE5index
FN:61,_RNvXs1_NtNtCs1XDxXB27MHs_4cody4core9occupancyNtB5_12OccupancyMapINtNtNtCs7CoZ09IQcyP_4core3ops5index8IndexMutNtB5_13OccupancyKindE9index_mut
FN:48,_RNvXs_NtNtCs1XDxXB27MHs_4cody4core9occupancyNtB4_12OccupancyMapNtNtCs7CoZ09IQcyP_4core7default7Default7default
FNDA:94,_RNvMNtNtCsjCmoZIkrVfe_4cody4core9occupancyNtB2_12OccupancyMap3newB6_
FNDA:4714,_RNvMNtNtCsjCmoZIkrVfe_4cody4core9occupancyNtB2_12OccupancyMap5or_inB6_
FNDA:0,_RNvXs0_NtNtCsjCmoZIkrVfe_4cody4core9occupancyNtB5_12OccupancyMapINtNtNtCs7CoZ09IQcyP_4core3ops5index5IndexNtB5_13OccupancyKindE5index
FNDA:610806,_RNvXs1_NtNtCsjCmoZIkrVfe_4cody4core9occupancyNtB5_12OccupancyMapINtNtNtCs7CoZ09IQcyP_4core3ops5index8IndexMutNtB5_13OccupancyKindE9index_mut
FNDA:0,_RNvXs_NtNtCsjCmoZIkrVfe_4cody4core9occupancyNtB4_12OccupancyMapNtNtCs7CoZ09IQcyP_4core7default7Default7default
FNDA:0,_RNvMNtNtCs1XDxXB27MHs_4cody4core9occupancyNtB2_12OccupancyMap3getB6_
FNDA:0,_RNvMNtNtCs1XDxXB27MHs_4cody4core9occupancyNtB2_12OccupancyMap3newB6_
FNDA:0,_RNvMNtNtCs1XDxXB27MHs_4cody4core9occupancyNtB2_12OccupancyMap3setB6_
FNDA:0,_RNvMNtNtCs1XDxXB27MHs_4cody4core9occupancyNtB2_12OccupancyMap5clearB6_
FNDA:0,_RNvMNtNtCs1XDxXB27MHs_4cody4core9occupancyNtB2_12OccupancyMap5or_inB6_
FNDA:0,_RNvXs0_NtNtCs1XDxXB27MHs_4cody4core9occupancyNtB5_12OccupancyMapINtNtNtCs7CoZ09IQcyP_4core3ops5index5IndexNtB5_13OccupancyKindE5index
FNDA:0,_RNvXs1_NtNtCs1XDxXB27MHs_4cody4core9occupancyNtB5_12OccupancyMapINtNtNtCs7CoZ09IQcyP_4core3ops5index8IndexMutNtB5_13OccupancyKindE9index_mut
FNDA:0,_RNvXs_NtNtCs1XDxXB27MHs_4cody4core9occupancyNtB4_12OccupancyMapNtNtCs7CoZ09IQcyP_4core7default7Default7default
FNF:8
FNH:3
DA:20,94
DA:21,94
DA:22,94
DA:23,94
DA:24,94
DA:27,0
DA:28,0
DA:29,0
DA:32,0
DA:33,0
DA:34,0
DA:37,4714
DA:38,4714
DA:39,4714
DA:42,0
DA:43,0
DA:44,0
DA:48,0
DA:49,0
DA:50,0
DA:55,0
DA:56,0
DA:57,0
DA:61,610806
DA:62,610806
DA:63,610806
BRF:0
BRH:0
LF:26
LH:11
end_of_record
SF:D:\Cody\src\core\piece.rs
FN:21,_RNvMNtNtCsjCmoZIkrVfe_4cody4core5pieceNtB2_5Color8oppositeB6_
FN:138,_RNvMs1_NtNtCsjCmoZIkrVfe_4cody4core5pieceNtB5_5Piece9from_char
FN:160,_RNvMs2_NtNtCsjCmoZIkrVfe_4cody4core5pieceNtB5_9PieceKind8from_uci
FN:63,_RNvMs_NtNtCsjCmoZIkrVfe_4cody4core5pieceNtB4_5Piece10from_index
FN:53,_RNvMs_NtNtCsjCmoZIkrVfe_4cody4core5pieceNtB4_5Piece10from_partsB8_
FN:110,_RNvMs_NtNtCsjCmoZIkrVfe_4cody4core5pieceNtB4_5Piece4kindB8_
FN:101,_RNvMs_NtNtCsjCmoZIkrVfe_4cody4core5pieceNtB4_5Piece5colorB8_
FN:48,_RNvMs_NtNtCsjCmoZIkrVfe_4cody4core5pieceNtB4_5Piece5indexB8_
FN:203,_RNvNtNtNtCs1XDxXB27MHs_4cody4core5piece5testss_18test_piece_to_char
FN:176,_RNvNtNtNtCs1XDxXB27MHs_4cody4core5piece5testss_19test_color_opposite
FN:210,_RNvNtNtNtCs1XDxXB27MHs_4cody4core5piece5testss_20test_piece_from_char
FN:182,_RNvNtNtNtCs1XDxXB27MHs_4cody4core5piece5testss_21test_piece_from_parts
FN:225,_RNvNtNtNtCs1XDxXB27MHs_4cody4core5piece5testss_23test_piecekind_from_uci
FN:195,_RNvNtNtNtCs1XDxXB27MHs_4cody4core5piece5testss_25test_piece_color_and_kind
FN:217,_RNvNtNtNtCs1XDxXB27MHs_4cody4core5piece5testss_28test_piece_index_consistency
FN:233,_RNvNtNtNtCs1XDxXB27MHs_4cody4core5piece5testss_31test_invalid_piece_index_panics
FN:21,_RNvMNtNtCs1XDxXB27MHs_4cody4core5pieceNtB2_5Color8oppositeB6_
FN:117,_RNvMs0_NtNtCs1XDxXB27MHs_4cody4core5pieceNtB5_5Piece7to_charB9_
FN:138,_RNvMs1_NtNtCs1XDxXB27MHs_4cody4core5pieceNtB5_5Piece9from_char
FN:160,_RNvMs2_NtNtCs1XDxXB27MHs_4cody4core5pieceNtB5_9PieceKind8from_uci
FN:63,_RNvMs_NtNtCs1XDxXB27MHs_4cody4core5pieceNtB4_5Piece10from_index
FN:53,_RNvMs_NtNtCs1XDxXB27MHs_4cody4core5pieceNtB4_5Piece10from_partsB8_
FN:110,_RNvMs_NtNtCs1XDxXB27MHs_4cody4core5pieceNtB4_5Piece4kindB8_
FN:101,_RNvMs_NtNtCs1XDxXB27MHs_4cody4core5pieceNtB4_5Piece5colorB8_
FN:48,_RNvMs_NtNtCs1XDxXB27MHs_4cody4core5pieceNtB4_5Piece5indexB8_
FN:83,_RNvMs_NtNtCs1XDxXB27MHs_4cody4core5pieceNtB4_5Piece11piece_indexB8_
FNDA:206426,_RNvMNtNtCsjCmoZIkrVfe_4cody4core5pieceNtB2_5Color8oppositeB6_
FNDA:2357,_RNvMs1_NtNtCsjCmoZIkrVfe_4cody4core5pieceNtB5_5Piece9from_char
FNDA:0,_RNvMs2_NtNtCsjCmoZIkrVfe_4cody4core5pieceNtB5_9PieceKind8from_uci
FNDA:4903956,_RNvMs_NtNtCsjCmoZIkrVfe_4cody4core5pieceNtB4_5Piece10from_index
FNDA:4903956,_RNvMs_NtNtCsjCmoZIkrVfe_4cody4core5pieceNtB4_5Piece10from_partsB8_
FNDA:407204,_RNvMs_NtNtCsjCmoZIkrVfe_4cody4core5pieceNtB4_5Piece4kindB8_
FNDA:2357,_RNvMs_NtNtCsjCmoZIkrVfe_4cody4core5pieceNtB4_5Piece5colorB8_
FNDA:5109915,_RNvMs_NtNtCsjCmoZIkrVfe_4cody4core5pieceNtB4_5Piece5indexB8_
FNDA:1,_RNvNtNtNtCs1XDxXB27MHs_4cody4core5piece5testss_18test_piece_to_char
FNDA:1,_RNvNtNtNtCs1XDxXB27MHs_4cody4core5piece5testss_19test_color_opposite
FNDA:1,_RNvNtNtNtCs1XDxXB27MHs_4cody4core5piece5testss_20test_piece_from_char
FNDA:1,_RNvNtNtNtCs1XDxXB27MHs_4cody4core5piece5testss_21test_piece_from_parts
FNDA:1,_RNvNtNtNtCs1XDxXB27MHs_4cody4core5piece5testss_23test_piecekind_from_uci
FNDA:1,_RNvNtNtNtCs1XDxXB27MHs_4cody4core5piece5testss_25test_piece_color_and_kind
FNDA:1,_RNvNtNtNtCs1XDxXB27MHs_4cody4core5piece5testss_28test_piece_index_consistency
FNDA:1,_RNvNtNtNtCs1XDxXB27MHs_4cody4core5piece5testss_31test_invalid_piece_index_panics
FNDA:2,_RNvMNtNtCs1XDxXB27MHs_4cody4core5pieceNtB2_5Color8oppositeB6_
FNDA:3,_RNvMs0_NtNtCs1XDxXB27MHs_4cody4core5pieceNtB5_5Piece7to_charB9_
FNDA:3,_RNvMs1_NtNtCs1XDxXB27MHs_4cody4core5pieceNtB5_5Piece9from_char
FNDA:3,_RNvMs2_NtNtCs1XDxXB27MHs_4cody4core5pieceNtB5_9PieceKind8from_uci
FNDA:3,_RNvMs_NtNtCs1XDxXB27MHs_4cody4core5pieceNtB4_5Piece10from_index
FNDA:3,_RNvMs_NtNtCs1XDxXB27MHs_4cody4core5pieceNtB4_5Piece10from_partsB8_
FNDA:2,_RNvMs_NtNtCs1XDxXB27MHs_4cody4core5pieceNtB4_5Piece4kindB8_
FNDA:2,_RNvMs_NtNtCs1XDxXB27MHs_4cody4core5pieceNtB4_5Piece5colorB8_
FNDA:12,_RNvMs_NtNtCs1XDxXB27MHs_4cody4core5pieceNtB4_5Piece5indexB8_
FNDA:0,_RNvMs_NtNtCs1XDxXB27MHs_4cody4core5pieceNtB4_5Piece11piece_indexB8_
FNF:18
FNH:17
DA:21,206428
DA:22,206428
DA:23,65398
DA:24,141030
DA:26,206428
DA:48,5109927
DA:49,5109927
DA:50,5109927
DA:53,4903959
DA:54,4903959
DA:55,4903958
DA:56,4903958
DA:57,4903958
DA:59,1
DA:61,4903959
DA:63,4903959
DA:64,4903959
DA:65,408258
DA:66,408258
DA:67,408258
DA:68,408258
DA:69,408259
DA:70,408258
DA:71,409068
DA:72,409069
DA:73,409068
DA:74,409068
DA:75,409068
DA:76,409068
DA:77,0
DA:78,1
DA:80,4903958
DA:83,0
DA:84,0
DA:85,0
DA:86,0
DA:87,0
DA:88,0
DA:89,0
DA:90,0
DA:91,0
DA:92,0
DA:93,0
DA:94,0
DA:95,0
DA:96,0
DA:98,0
DA:101,2359
DA:102,2359
DA:103,1183
DA:105,1176
DA:107,2359
DA:110,407206
DA:111,407206
DA:112,407206
DA:117,3
DA:119,3
DA:120,1
DA:121,0
DA:122,0
DA:123,0
DA:124,0
DA:125,0
DA:126,0
DA:127,1
DA:128,0
DA:129,0
DA:130,0
DA:131,0
DA:132,1
DA:134,3
DA:138,2360
DA:140,2360
DA:141,599
DA:142,136
DA:143,131
DA:144,151
DA:145,72
DA:146,94
DA:147,600
DA:148,125
DA:149,135
DA:150,149
DA:151,72
DA:152,95
DA:153,1
DA:155,2360
DA:160,3
DA:161,3
DA:162,1
DA:163,0
DA:164,0
DA:165,1
DA:166,1
DA:168,3
DA:176,1
DA:177,1
DA:178,1
DA:179,1
DA:182,1
DA:183,1
DA:184,1
DA:187,1
DA:188,1
DA:191,1
DA:192,1
DA:195,1
DA:196,1
DA:197,1
DA:198,1
DA:199,1
DA:200,1
DA:203,1
DA:204,1
DA:205,1
DA:206,1
DA:207,1
DA:210,1
DA:211,1
DA:212,1
DA:213,1
DA:214,1
DA:217,1
DA:218,13
DA:219,12
DA:220,12
DA:222,1
DA:225,1
DA:226,1
DA:227,1
DA:228,1
DA:229,1
DA:233,1
DA:234,1
DA:235,1
BRF:0
BRH:0
LF:135
LH:105
end_of_record
SF:D:\Cody\src\core\piecebitboards.rs
FN:29,_RNvMNtNtCsjCmoZIkrVfe_4cody4core14piecebitboardsNtB2_14PieceBitboards3allB6_
FN:18,_RNvMNtNtCsjCmoZIkrVfe_4cody4core14piecebitboardsNtB2_14PieceBitboards3getB6_
FN:11,_RNvMNtNtCsjCmoZIkrVfe_4cody4core14piecebitboardsNtB2_14PieceBitboards3new
FN:33,_RNvMNtNtCsjCmoZIkrVfe_4cody4core14piecebitboardsNtB2_14PieceBitboards7get_mut
FN:45,_RNvMs0_NtNtCsjCmoZIkrVfe_4cody4core14piecebitboardsNtB5_14PieceBitboards4iter
FN:54,_RNvMs1_NtNtCsjCmoZIkrVfe_4cody4core14piecebitboardsNtB5_14PieceBitboards8iter_mut
FN:39,_RNvXs_NtNtCsjCmoZIkrVfe_4cody4core14piecebitboardsNtB4_14PieceBitboardsNtNtCs7CoZ09IQcyP_4core7default7Default7default
FN:30,_RNCNvMNtNtCsjCmoZIkrVfe_4cody4core14piecebitboardsNtB4_14PieceBitboards3all0B8_
FN:58,_RNCNvMs1_NtNtCsjCmoZIkrVfe_4cody4core14piecebitboardsNtB7_14PieceBitboards8iter_mut0Bb_
FN:30,_RNCNvMNtNtCs1XDxXB27MHs_4cody4core14piecebitboardsNtB4_14PieceBitboards3all0B8_
FN:49,_RNCNvMs0_NtNtCs1XDxXB27MHs_4cody4core14piecebitboardsNtB7_14PieceBitboards4iter0Bb_
FN:58,_RNCNvMs1_NtNtCs1XDxXB27MHs_4cody4core14piecebitboardsNtB7_14PieceBitboards8iter_mut0Bb_
FN:29,_RNvMNtNtCs1XDxXB27MHs_4cody4core14piecebitboardsNtB2_14PieceBitboards3allB6_
FN:18,_RNvMNtNtCs1XDxXB27MHs_4cody4core14piecebitboardsNtB2_14PieceBitboards3getB6_
FN:11,_RNvMNtNtCs1XDxXB27MHs_4cody4core14piecebitboardsNtB2_14PieceBitboards3new
FN:24,_RNvMNtNtCs1XDxXB27MHs_4cody4core14piecebitboardsNtB2_14PieceBitboards3setB6_
FN:33,_RNvMNtNtCs1XDxXB27MHs_4cody4core14piecebitboardsNtB2_14PieceBitboards7get_mut
FN:45,_RNvMs0_NtNtCs1XDxXB27MHs_4cody4core14piecebitboardsNtB5_14PieceBitboards4iter
FN:54,_RNvMs1_NtNtCs1XDxXB27MHs_4cody4core14piecebitboardsNtB5_14PieceBitboards8iter_mut
FN:39,_RNvXs_NtNtCs1XDxXB27MHs_4cody4core14piecebitboardsNtB4_14PieceBitboardsNtNtCs7CoZ09IQcyP_4core7default7Default7default
FNDA:2861,_RNvMNtNtCsjCmoZIkrVfe_4cody4core14piecebitboardsNtB2_14PieceBitboards3allB6_
FNDA:4903956,_RNvMNtNtCsjCmoZIkrVfe_4cody4core14piecebitboardsNtB2_14PieceBitboards3getB6_
FNDA:94,_RNvMNtNtCsjCmoZIkrVfe_4cody4core14piecebitboardsNtB2_14PieceBitboards3new
FNDA:205959,_RNvMNtNtCsjCmoZIkrVfe_4cody4core14piecebitboardsNtB2_14PieceBitboards7get_mut
FNDA:0,_RNvMs0_NtNtCsjCmoZIkrVfe_4cody4core14piecebitboardsNtB5_14PieceBitboards4iter
FNDA:203602,_RNvMs1_NtNtCsjCmoZIkrVfe_4cody4core14piecebitboardsNtB5_14PieceBitboards8iter_mut
FNDA:0,_RNvXs_NtNtCsjCmoZIkrVfe_4cody4core14piecebitboardsNtB4_14PieceBitboardsNtNtCs7CoZ09IQcyP_4core7default7Default7default
FNDA:34332,_RNCNvMNtNtCsjCmoZIkrVfe_4cody4core14piecebitboardsNtB4_14PieceBitboards3all0B8_
FNDA:1609757,_RNCNvMs1_NtNtCsjCmoZIkrVfe_4cody4core14piecebitboardsNtB7_14PieceBitboards8iter_mut0Bb_
FNDA:0,_RNCNvMNtNtCs1XDxXB27MHs_4cody4core14piecebitboardsNtB4_14PieceBitboards3all0B8_
FNDA:0,_RNCNvMs0_NtNtCs1XDxXB27MHs_4cody4core14piecebitboardsNtB7_14PieceBitboards4iter0Bb_
FNDA:0,_RNCNvMs1_NtNtCs1XDxXB27MHs_4cody4core14piecebitboardsNtB7_14PieceBitboards8iter_mut0Bb_
FNDA:0,_RNvMNtNtCs1XDxXB27MHs_4cody4core14piecebitboardsNtB2_14PieceBitboards3allB6_
FNDA:0,_RNvMNtNtCs1XDxXB27MHs_4cody4core14piecebitboardsNtB2_14PieceBitboards3getB6_
FNDA:0,_RNvMNtNtCs1XDxXB27MHs_4cody4core14piecebitboardsNtB2_14PieceBitboards3new
FNDA:0,_RNvMNtNtCs1XDxXB27MHs_4cody4core14piecebitboardsNtB2_14PieceBitboards3setB6_
FNDA:0,_RNvMNtNtCs1XDxXB27MHs_4cody4core14piecebitboardsNtB2_14PieceBitboards7get_mut
FNDA:0,_RNvMs0_NtNtCs1XDxXB27MHs_4cody4core14piecebitboardsNtB5_14PieceBitboards4iter
FNDA:0,_RNvMs1_NtNtCs1XDxXB27MHs_4cody4core14piecebitboardsNtB5_14PieceBitboards8iter_mut
FNDA:0,_RNvXs_NtNtCs1XDxXB27MHs_4cody4core14piecebitboardsNtB4_14PieceBitboardsNtNtCs7CoZ09IQcyP_4core7default7Default7default
FNF:11
FNH:7
DA:11,94
DA:12,94
DA:13,94
DA:14,94
DA:15,94
DA:18,4903956
DA:19,4903956
DA:20,4903956
DA:21,4903956
DA:24,0
DA:25,0
DA:26,0
DA:29,2861
DA:30,34332
DA:31,2861
DA:33,205959
DA:34,205959
DA:35,205959
DA:39,0
DA:40,0
DA:41,0
DA:45,0
DA:46,0
DA:47,0
DA:48,0
DA:49,0
DA:50,0
DA:54,203602
DA:55,203602
DA:56,203602
DA:57,203602
DA:58,1609757
DA:59,203602
BRF:0
BRH:0
LF:36
LH:23
end_of_record
SF:D:\Cody\src\core\position.rs
FN:44,_RNvMs_NtNtCsjCmoZIkrVfe_4cody4core8positionNtB4_8Position9copy_fromCs4VwtuGktIK5_4Cody
FN:48,_RNvMs_NtNtCsjCmoZIkrVfe_4cody4core8positionNtB4_8Position10all_pieces
FN:52,_RNvMs_NtNtCsjCmoZIkrVfe_4cody4core8positionNtB4_8Position10our_pieces
FN:75,_RNvMs_NtNtCsjCmoZIkrVfe_4cody4core8positionNtB4_8Position12their_pieces
FN:418,_RNvMs_NtNtCsjCmoZIkrVfe_4cody4core8positionNtB4_8Position14parse_uci_move
FN:206,_RNvMs_NtNtCsjCmoZIkrVfe_4cody4core8positionNtB4_8Position15apply_move_into
FN:324,_RNvMs_NtNtCsjCmoZIkrVfe_4cody4core8positionNtB4_8Position22update_castling_rights
FN:93,_RNvMs_NtNtCsjCmoZIkrVfe_4cody4core8positionNtB4_8Position5empty
FN:105,_RNvMs_NtNtCsjCmoZIkrVfe_4cody4core8positionNtB4_8Position8from_fen
FN:80,_RNvMs_NtNtCsjCmoZIkrVfe_4cody4core8positionNtB4_8Position9set_pieceB8_
FN:460,_RNvNtNtCsjCmoZIkrVfe_4cody4core8position19is_pawn_double_pushB5_
FN:448,_RNvNtNtCsjCmoZIkrVfe_4cody4core8position8or_colorB5_
FN:37,_RNvXNtNtCsjCmoZIkrVfe_4cody4core8positionNtB2_8PositionNtNtCs7CoZ09IQcyP_4core7default7Default7default
FN:443,_RNCNvMs_NtNtCsjCmoZIkrVfe_4cody4core8positionNtB6_8Position14parse_uci_move0Ba_
FN:215,_RNCNvMs_NtNtCsjCmoZIkrVfe_4cody4core8positionNtB6_8Position15apply_move_into0Ba_
FN:133,_RNCNvMs_NtNtCsjCmoZIkrVfe_4cody4core8positionNtB6_8Position8from_fen0Ba_
FN:135,_RNCNvMs_NtNtCsjCmoZIkrVfe_4cody4core8positionNtB6_8Position8from_fens_0Ba_
FN:466,_RNCNvNtNtCsjCmoZIkrVfe_4cody4core8position19is_pawn_double_push0B7_
FN:467,_RNCNvNtNtCsjCmoZIkrVfe_4cody4core8position19is_pawn_double_pushs_0B7_
FN:443,_RNCNvMs_NtNtCs1XDxXB27MHs_4cody4core8positionNtB6_8Position14parse_uci_move0Ba_
FN:215,_RNCNvMs_NtNtCs1XDxXB27MHs_4cody4core8positionNtB6_8Position15apply_move_into0Ba_
FN:133,_RNCNvMs_NtNtCs1XDxXB27MHs_4cody4core8positionNtB6_8Position8from_fen0Ba_
FN:135,_RNCNvMs_NtNtCs1XDxXB27MHs_4cody4core8positionNtB6_8Position8from_fens_0Ba_
FN:466,_RNCNvNtNtCs1XDxXB27MHs_4cody4core8position19is_pawn_double_push0B7_
FN:467,_RNCNvNtNtCs1XDxXB27MHs_4cody4core8position19is_pawn_double_pushs_0B7_
FN:48,_RNvMs_NtNtCs1XDxXB27MHs_4cody4core8positionNtB4_8Position10all_pieces
FN:52,_RNvMs_NtNtCs1XDxXB27MHs_4cody4core8positionNtB4_8Position10our_pieces
FN:75,_RNvMs_NtNtCs1XDxXB27MHs_4cody4core8positionNtB4_8Position12their_pieces
FN:418,_RNvMs_NtNtCs1XDxXB27MHs_4cody4core8positionNtB4_8Position14parse_uci_move
FN:206,_RNvMs_NtNtCs1XDxXB27MHs_4cody4core8positionNtB4_8Position15apply_move_into
FN:324,_RNvMs_NtNtCs1XDxXB27MHs_4cody4core8positionNtB4_8Position22update_castling_rights
FN:93,_RNvMs_NtNtCs1XDxXB27MHs_4cody4core8positionNtB4_8Position5empty
FN:352,_RNvMs_NtNtCs1XDxXB27MHs_4cody4core8positionNtB4_8Position6to_fen
FN:105,_RNvMs_NtNtCs1XDxXB27MHs_4cody4core8positionNtB4_8Position8from_fen
FN:44,_RNvMs_NtNtCs1XDxXB27MHs_4cody4core8positionNtB4_8Position9copy_fromB8_
FN:80,_RNvMs_NtNtCs1XDxXB27MHs_4cody4core8positionNtB4_8Position9set_pieceB8_
FN:460,_RNvNtNtCs1XDxXB27MHs_4cody4core8position19is_pawn_double_pushB5_
FN:448,_RNvNtNtCs1XDxXB27MHs_4cody4core8position8or_colorB5_
FN:37,_RNvXNtNtCs1XDxXB27MHs_4cody4core8positionNtB2_8PositionNtNtCs7CoZ09IQcyP_4core7default7Default7default
FN:44,_RNvMs_NtNtCsjCmoZIkrVfe_4cody4core8positionNtB4_8Position9copy_fromCs12oLCDY6wIW_15generated_tests
FNDA:0,_RNvMs_NtNtCsjCmoZIkrVfe_4cody4core8positionNtB4_8Position9copy_fromCs4VwtuGktIK5_4Cody
FNDA:2861,_RNvMs_NtNtCsjCmoZIkrVfe_4cody4core8positionNtB4_8Position10all_pieces
FNDA:5685,_RNvMs_NtNtCsjCmoZIkrVfe_4cody4core8positionNtB4_8Position10our_pieces
FNDA:2824,_RNvMs_NtNtCsjCmoZIkrVfe_4cody4core8positionNtB4_8Position12their_pieces
FNDA:0,_RNvMs_NtNtCsjCmoZIkrVfe_4cody4core8positionNtB4_8Position14parse_uci_move
FNDA:203602,_RNvMs_NtNtCsjCmoZIkrVfe_4cody4core8positionNtB4_8Position15apply_move_into
FNDA:203602,_RNvMs_NtNtCsjCmoZIkrVfe_4cody4core8positionNtB4_8Position22update_castling_rights
FNDA:94,_RNvMs_NtNtCsjCmoZIkrVfe_4cody4core8positionNtB4_8Position5empty
FNDA:94,_RNvMs_NtNtCsjCmoZIkrVfe_4cody4core8positionNtB4_8Position8from_fen
FNDA:2357,_RNvMs_NtNtCsjCmoZIkrVfe_4cody4core8positionNtB4_8Position9set_pieceB8_
FNDA:203602,_RNvNtNtCsjCmoZIkrVfe_4cody4core8position19is_pawn_double_pushB5_
FNDA:407204,_RNvNtNtCsjCmoZIkrVfe_4cody4core8position8or_colorB5_
FNDA:47,_RNvXNtNtCsjCmoZIkrVfe_4cody4core8positionNtB2_8PositionNtNtCs7CoZ09IQcyP_4core7default7Default7default
FNDA:0,_RNCNvMs_NtNtCsjCmoZIkrVfe_4cody4core8positionNtB6_8Position14parse_uci_move0Ba_
FNDA:1609757,_RNCNvMs_NtNtCsjCmoZIkrVfe_4cody4core8positionNtB6_8Position15apply_move_into0Ba_
FNDA:0,_RNCNvMs_NtNtCsjCmoZIkrVfe_4cody4core8positionNtB6_8Position8from_fen0Ba_
FNDA:0,_RNCNvMs_NtNtCsjCmoZIkrVfe_4cody4core8positionNtB6_8Position8from_fens_0Ba_
FNDA:4517,_RNCNvNtNtCsjCmoZIkrVfe_4cody4core8position19is_pawn_double_push0B7_
FNDA:7021,_RNCNvNtNtCsjCmoZIkrVfe_4cody4core8position19is_pawn_double_pushs_0B7_
FNDA:0,_RNCNvMs_NtNtCs1XDxXB27MHs_4cody4core8positionNtB6_8Position14parse_uci_move0Ba_
FNDA:0,_RNCNvMs_NtNtCs1XDxXB27MHs_4cody4core8positionNtB6_8Position15apply_move_into0Ba_
FNDA:0,_RNCNvMs_NtNtCs1XDxXB27MHs_4cody4core8positionNtB6_8Position8from_fen0Ba_
FNDA:0,_RNCNvMs_NtNtCs1XDxXB27MHs_4cody4core8positionNtB6_8Position8from_fens_0Ba_
FNDA:0,_RNCNvNtNtCs1XDxXB27MHs_4cody4core8position19is_pawn_double_push0B7_
FNDA:0,_RNCNvNtNtCs1XDxXB27MHs_4cody4core8position19is_pawn_double_pushs_0B7_
FNDA:0,_RNvMs_NtNtCs1XDxXB27MHs_4cody4core8positionNtB4_8Position10all_pieces
FNDA:0,_RNvMs_NtNtCs1XDxXB27MHs_4cody4core8positionNtB4_8Position10our_pieces
FNDA:0,_RNvMs_NtNtCs1XDxXB27MHs_4cody4core8positionNtB4_8Position12their_pieces
FNDA:0,_RNvMs_NtNtCs1XDxXB27MHs_4cody4core8positionNtB4_8Position14parse_uci_move
FNDA:0,_RNvMs_NtNtCs1XDxXB27MHs_4cody4core8positionNtB4_8Position15apply_move_into
FNDA:0,_RNvMs_NtNtCs1XDxXB27MHs_4cody4core8positionNtB4_8Position22update_castling_rights
FNDA:0,_RNvMs_NtNtCs1XDxXB27MHs_4cody4core8positionNtB4_8Position5empty
FNDA:0,_RNvMs_NtNtCs1XDxXB27MHs_4cody4core8positionNtB4_8Position6to_fen
FNDA:0,_RNvMs_NtNtCs1XDxXB27MHs_4cody4core8positionNtB4_8Position8from_fen
FNDA:0,_RNvMs_NtNtCs1XDxXB27MHs_4cody4core8positionNtB4_8Position9copy_fromB8_
FNDA:0,_RNvMs_NtNtCs1XDxXB27MHs_4cody4core8positionNtB4_8Position9set_pieceB8_
FNDA:0,_RNvNtNtCs1XDxXB27MHs_4cody4core8position19is_pawn_double_pushB5_
FNDA:0,_RNvNtNtCs1XDxXB27MHs_4cody4core8position8or_colorB5_
FNDA:0,_RNvXNtNtCs1XDxXB27MHs_4cody4core8positionNtB2_8PositionNtNtCs7CoZ09IQcyP_4core7default7Default7default
FNDA:47,_RNvMs_NtNtCsjCmoZIkrVfe_4cody4core8positionNtB4_8Position9copy_fromCs12oLCDY6wIW_15generated_tests
FNF:20
FNH:15
DA:37,47
DA:38,47
DA:39,47
DA:44,47
DA:45,47
DA:46,47
DA:48,2861
DA:49,2861
DA:50,2861
DA:52,5685
DA:53,5685
DA:54,5685
DA:55,5685
DA:56,5685
DA:57,5685
DA:58,5685
DA:59,5685
DA:60,5685
DA:61,5685
DA:62,5685
DA:63,5685
DA:64,5685
DA:65,5685
DA:66,5685
DA:67,5685
DA:68,5685
DA:69,5685
DA:70,5685
DA:71,5685
DA:72,5685
DA:73,5685
DA:75,2824
DA:76,2824
DA:77,2824
DA:80,2357
DA:81,2357
DA:82,2357
DA:84,2357
DA:85,1182
DA:86,1175
DA:89,2357
DA:90,2357
DA:91,2357
DA:93,94
DA:94,94
DA:95,94
DA:96,94
DA:97,94
DA:98,94
DA:99,94
DA:100,94
DA:101,94
DA:102,94
DA:103,94
DA:105,94
DA:106,94
DA:107,94
DA:108,94
DA:109,0
DA:110,94
DA:112,94
DA:113,94
DA:114,94
DA:115,94
DA:116,94
DA:117,94
DA:120,94
DA:121,94
DA:122,3916
DA:123,3916
DA:124,658
DA:125,658
DA:126,658
DA:127,658
DA:128,3258
DA:129,901
DA:130,901
DA:132,2357
DA:133,2357
DA:134,2357
DA:135,2357
DA:136,2357
DA:137,2357
DA:143,94
DA:144,94
DA:145,15
DA:146,0
DA:150,94
DA:153,94
DA:154,1
DA:155,1
DA:156,1
DA:158,93
DA:162,94
DA:163,94
DA:165,94
DA:166,94
DA:206,203602
DA:207,203602
DA:208,203602
DA:209,203602
DA:211,203602
DA:212,203602
DA:213,203602
DA:214,203602
DA:215,1609757
DA:216,1609757
DA:217,203602
DA:218,203602
DA:220,1406155
DA:222,1609757
DA:223,203602
DA:226,203602
DA:227,0
DA:228,0
DA:229,0
DA:230,0
DA:233,0
DA:236,0
DA:237,0
DA:238,0
DA:239,0
DA:240,0
DA:241,0
DA:242,0
DA:243,0
DA:245,0
DA:246,0
DA:247,0
DA:248,0
DA:249,0
DA:250,0
DA:252,203602
DA:255,203602
DA:256,0
DA:257,0
DA:258,0
DA:260,0
DA:261,0
DA:262,0
DA:263,0
DA:264,203602
DA:265,0
DA:266,0
DA:267,0
DA:269,0
DA:270,0
DA:271,0
DA:272,0
DA:273,203602
DA:276,203602
DA:277,203602
DA:278,0
DA:279,0
DA:280,0
DA:281,203602
DA:282,203602
DA:283,203602
DA:284,203602
DA:287,203602
DA:288,203602
DA:289,203602
DA:290,203602
DA:291,203602
DA:294,203602
DA:297,203602
DA:298,5248
DA:299,2039
DA:300,3209
DA:303,198354
DA:307,203602
DA:308,203602
DA:309,203602
DA:310,17596
DA:312,186006
DA:316,203602
DA:317,139243
DA:318,139243
DA:321,203602
DA:322,203602
DA:324,203602
DA:327,203602
DA:328,1261
DA:329,1261
DA:330,1261
DA:331,1261
DA:332,10785
DA:333,10785
DA:334,10785
DA:335,10785
DA:336,3012
DA:337,8848
DA:338,28509
DA:339,878
DA:340,150309
DA:343,203602
DA:344,2495
DA:345,3184
DA:346,2310
DA:347,2147
DA:348,193466
DA:350,203602
DA:352,0
DA:353,0
DA:355,0
DA:356,0
DA:357,0
DA:358,0
DA:359,0
DA:361,0
DA:362,0
DA:363,0
DA:364,0
DA:365,0
DA:368,0
DA:369,0
DA:370,0
DA:371,0
DA:372,0
DA:373,0
DA:374,0
DA:375,0
DA:376,0
DA:379,0
DA:380,0
DA:381,0
DA:382,0
DA:383,0
DA:384,0
DA:388,0
DA:389,0
DA:390,0
DA:391,0
DA:395,0
DA:396,0
DA:399,0
DA:400,0
DA:401,0
DA:402,0
DA:403,0
DA:404,0
DA:405,0
DA:408,0
DA:409,0
DA:412,0
DA:413,0
DA:415,0
DA:416,0
DA:418,0
DA:419,0
DA:420,0
DA:421,0
DA:423,0
DA:424,0
DA:425,0
DA:426,0
DA:428,0
DA:429,0
DA:431,0
DA:432,0
DA:434,0
DA:441,0
DA:442,0
DA:443,0
DA:444,0
DA:448,407204
DA:449,407204
DA:450,407204
DA:451,407204
DA:452,407204
DA:453,407204
DA:454,407204
DA:455,407204
DA:456,407204
DA:457,407204
DA:460,203602
DA:461,203602
DA:462,186006
DA:463,17596
DA:465,17596
DA:466,7231
DA:467,10365
DA:469,203602
BRF:0
BRH:0
LF:289
LH:185
end_of_record
SF:D:\Cody\src\core\square.rs
FN:26,_RNvMNtNtCsjCmoZIkrVfe_4cody4core6squareNtB2_6Square11from_coords
FN:69,_RNvMNtNtCsjCmoZIkrVfe_4cody4core6squareNtB2_6Square14from_rank_file
FN:60,_RNvMNtNtCsjCmoZIkrVfe_4cody4core6squareNtB2_6Square14try_from_index
FN:45,_RNvMNtNtCsjCmoZIkrVfe_4cody4core6squareNtB2_6Square3bit
FN:56,_RNvMNtNtCsjCmoZIkrVfe_4cody4core6squareNtB2_6Square3idxB6_
FN:37,_RNvMNtNtCsjCmoZIkrVfe_4cody4core6squareNtB2_6Square4file
FN:41,_RNvMNtNtCsjCmoZIkrVfe_4cody4core6squareNtB2_6Square4rank
FN:49,_RNvMNtNtCsjCmoZIkrVfe_4cody4core6squareNtB2_6Square6to_uci
FN:124,_RNvMNtNtCsjCmoZIkrVfe_4cody4core6squareNtB2_6Square7advance
FN:110,_RNvMNtNtCsjCmoZIkrVfe_4cody4core6squareNtB2_6Square7forward
FN:117,_RNvMNtNtCsjCmoZIkrVfe_4cody4core6squareNtB2_6Square8backward
FN:92,_RNvMNtNtCsjCmoZIkrVfe_4cody4core6squareNtB2_6Square9all_array
FN:102,_RNvMNtNtCsjCmoZIkrVfe_4cody4core6squareNtB2_6Square9file_char
FN:133,_RNvMNtNtCsjCmoZIkrVfe_4cody4core6squareNtB2_6Square9file_mask
FN:106,_RNvMNtNtCsjCmoZIkrVfe_4cody4core6squareNtB2_6Square9rank_char
FN:137,_RNvMNtNtCsjCmoZIkrVfe_4cody4core6squareNtB2_6Square9rank_mask
FN:143,_RNvXs_NtNtCsjCmoZIkrVfe_4cody4core6squareNtB4_6SquareNtNtCs7CoZ09IQcyP_4core3fmt7Display3fmt
FN:26,_RNvMNtNtCs1XDxXB27MHs_4cody4core6squareNtB2_6Square11from_coords
FN:69,_RNvMNtNtCs1XDxXB27MHs_4cody4core6squareNtB2_6Square14from_rank_file
FN:60,_RNvMNtNtCs1XDxXB27MHs_4cody4core6squareNtB2_6Square14try_from_index
FN:56,_RNvMNtNtCs1XDxXB27MHs_4cody4core6squareNtB2_6Square3idxB6_
FN:37,_RNvMNtNtCs1XDxXB27MHs_4cody4core6squareNtB2_6Square4file
FN:41,_RNvMNtNtCs1XDxXB27MHs_4cody4core6squareNtB2_6Square4rank
FN:49,_RNvMNtNtCs1XDxXB27MHs_4cody4core6squareNtB2_6Square6to_uci
FN:124,_RNvMNtNtCs1XDxXB27MHs_4cody4core6squareNtB2_6Square7advance
FN:110,_RNvMNtNtCs1XDxXB27MHs_4cody4core6squareNtB2_6Square7forward
FN:117,_RNvMNtNtCs1XDxXB27MHs_4cody4core6squareNtB2_6Square8backward
FN:92,_RNvMNtNtCs1XDxXB27MHs_4cody4core6squareNtB2_6Square9all_array
FN:102,_RNvMNtNtCs1XDxXB27MHs_4cody4core6squareNtB2_6Square9file_char
FN:106,_RNvMNtNtCs1XDxXB27MHs_4cody4core6squareNtB2_6Square9rank_char
FN:143,_RNvXs_NtNtCs1XDxXB27MHs_4cody4core6squareNtB4_6SquareNtNtCs7CoZ09IQcyP_4core3fmt7Display3fmt
FN:175,_RNvNtNtNtCs1XDxXB27MHs_4cody4core6square5testss_11test_to_uci
FN:217,_RNvNtNtNtCs1XDxXB27MHs_4cody4core6square5testss_12test_advance
FN:167,_RNvNtNtNtCs1XDxXB27MHs_4cody4core6square5testss_18test_file_and_rank
FN:153,_RNvNtNtNtCs1XDxXB27MHs_4cody4core6square5testss_22test_from_coords_valid
FN:160,_RNvNtNtNtCs1XDxXB27MHs_4cody4core6square5testss_24test_from_coords_invalid
FN:225,_RNvNtNtNtCs1XDxXB27MHs_4cody4core6square5testss_24test_to_string_and_chars
FN:209,_RNvNtNtNtCs1XDxXB27MHs_4cody4core6square5testss_25test_forward_and_backward
FN:197,_RNvNtNtNtCs1XDxXB27MHs_4cody4core6square5testss_25test_from_rank_file_valid
FN:182,_RNvNtNtNtCs1XDxXB27MHs_4cody4core6square5testss_25test_try_from_index_valid
FN:203,_RNvNtNtNtCs1XDxXB27MHs_4cody4core6square5testss_27test_from_rank_file_invalid
FN:232,_RNvNtNtNtCs1XDxXB27MHs_4cody4core6square5testss_35test_all_array_contains_all_squares
FN:191,_RNvNtNtNtCs1XDxXB27MHs_4cody4core6square5testss_40test_try_from_index_invalid_returns_none
FN:45,_RNvMNtNtCs1XDxXB27MHs_4cody4core6squareNtB2_6Square3bit
FN:133,_RNvMNtNtCs1XDxXB27MHs_4cody4core6squareNtB2_6Square9file_mask
FN:137,_RNvMNtNtCs1XDxXB27MHs_4cody4core6squareNtB2_6Square9rank_mask
FNDA:0,_RNvMNtNtCsjCmoZIkrVfe_4cody4core6squareNtB2_6Square11from_coords
FNDA:19144,_RNvMNtNtCsjCmoZIkrVfe_4cody4core6squareNtB2_6Square14from_rank_file
FNDA:218762,_RNvMNtNtCsjCmoZIkrVfe_4cody4core6squareNtB2_6Square14try_from_index
FNDA:14491,_RNvMNtNtCsjCmoZIkrVfe_4cody4core6squareNtB2_6Square3bit
FNDA:9736,_RNvMNtNtCsjCmoZIkrVfe_4cody4core6squareNtB2_6Square3idxB6_
FNDA:26286,_RNvMNtNtCsjCmoZIkrVfe_4cody4core6squareNtB2_6Square4file
FNDA:43882,_RNvMNtNtCsjCmoZIkrVfe_4cody4core6squareNtB2_6Square4rank
FNDA:0,_RNvMNtNtCsjCmoZIkrVfe_4cody4core6squareNtB2_6Square6to_uci
FNDA:17740,_RNvMNtNtCsjCmoZIkrVfe_4cody4core6squareNtB2_6Square7advance
FNDA:6556,_RNvMNtNtCsjCmoZIkrVfe_4cody4core6squareNtB2_6Square7forward
FNDA:10230,_RNvMNtNtCsjCmoZIkrVfe_4cody4core6squareNtB2_6Square8backward
FNDA:0,_RNvMNtNtCsjCmoZIkrVfe_4cody4core6squareNtB2_6Square9all_array
FNDA:0,_RNvMNtNtCsjCmoZIkrVfe_4cody4core6squareNtB2_6Square9file_char
FNDA:6639,_RNvMNtNtCsjCmoZIkrVfe_4cody4core6squareNtB2_6Square9file_mask
FNDA:0,_RNvMNtNtCsjCmoZIkrVfe_4cody4core6squareNtB2_6Square9rank_char
FNDA:6639,_RNvMNtNtCsjCmoZIkrVfe_4cody4core6squareNtB2_6Square9rank_mask
FNDA:0,_RNvXs_NtNtCsjCmoZIkrVfe_4cody4core6squareNtB4_6SquareNtNtCs7CoZ09IQcyP_4core3fmt7Display3fmt
FNDA:6,_RNvMNtNtCs1XDxXB27MHs_4cody4core6squareNtB2_6Square11from_coords
FNDA:7,_RNvMNtNtCs1XDxXB27MHs_4cody4core6squareNtB2_6Square14from_rank_file
FNDA:66,_RNvMNtNtCs1XDxXB27MHs_4cody4core6squareNtB2_6Square14try_from_index
FNDA:64,_RNvMNtNtCs1XDxXB27MHs_4cody4core6squareNtB2_6Square3idxB6_
FNDA:11,_RNvMNtNtCs1XDxXB27MHs_4cody4core6squareNtB2_6Square4file
FNDA:11,_RNvMNtNtCs1XDxXB27MHs_4cody4core6squareNtB2_6Square4rank
FNDA:3,_RNvMNtNtCs1XDxXB27MHs_4cody4core6squareNtB2_6Square6to_uci
FNDA:4,_RNvMNtNtCs1XDxXB27MHs_4cody4core6squareNtB2_6Square7advance
FNDA:2,_RNvMNtNtCs1XDxXB27MHs_4cody4core6squareNtB2_6Square7forward
FNDA:2,_RNvMNtNtCs1XDxXB27MHs_4cody4core6squareNtB2_6Square8backward
FNDA:1,_RNvMNtNtCs1XDxXB27MHs_4cody4core6squareNtB2_6Square9all_array
FNDA:2,_RNvMNtNtCs1XDxXB27MHs_4cody4core6squareNtB2_6Square9file_char
FNDA:2,_RNvMNtNtCs1XDxXB27MHs_4cody4core6squareNtB2_6Square9rank_char
FNDA:1,_RNvXs_NtNtCs1XDxXB27MHs_4cody4core6squareNtB4_6SquareNtNtCs7CoZ09IQcyP_4core3fmt7Display3fmt
FNDA:1,_RNvNtNtNtCs1XDxXB27MHs_4cody4core6square5testss_11test_to_uci
FNDA:1,_RNvNtNtNtCs1XDxXB27MHs_4cody4core6square5testss_12test_advance
FNDA:1,_RNvNtNtNtCs1XDxXB27MHs_4cody4core6square5testss_18test_file_and_rank
FNDA:1,_RNvNtNtNtCs1XDxXB27MHs_4cody4core6square5testss_22test_from_coords_valid
FNDA:1,_RNvNtNtNtCs1XDxXB27MHs_4cody4core6square5testss_24test_from_coords_invalid
FNDA:1,_RNvNtNtNtCs1XDxXB27MHs_4cody4core6square5testss_24test_to_string_and_chars
FNDA:1,_RNvNtNtNtCs1XDxXB27MHs_4cody4core6square5testss_25test_forward_and_backward
FNDA:1,_RNvNtNtNtCs1XDxXB27MHs_4cody4core6square5testss_25test_from_rank_file_valid
FNDA:1,_RNvNtNtNtCs1XDxXB27MHs_4cody4core6square5testss_25test_try_from_index_valid
FNDA:1,_RNvNtNtNtCs1XDxXB27MHs_4cody4core6square5testss_27test_from_rank_file_invalid
FNDA:1,_RNvNtNtNtCs1XDxXB27MHs_4cody4core6square5testss_35test_all_array_contains_all_squares
FNDA:1,_RNvNtNtNtCs1XDxXB27MHs_4cody4core6square5testss_40test_try_from_index_invalid_returns_none
FNDA:0,_RNvMNtNtCs1XDxXB27MHs_4cody4core6squareNtB2_6Square3bit
FNDA:0,_RNvMNtNtCs1XDxXB27MHs_4cody4core6squareNtB2_6Square9file_mask
FNDA:0,_RNvMNtNtCs1XDxXB27MHs_4cody4core6squareNtB2_6Square9rank_mask
FNF:29
FNH:29
DA:26,6
DA:27,6
DA:28,3
DA:29,3
DA:30,3
DA:31,3
DA:32,3
DA:34,3
DA:35,6
DA:37,26297
DA:38,26297
DA:39,26297
DA:41,43893
DA:42,43893
DA:43,43893
DA:45,14491
DA:46,14491
DA:47,14491
DA:49,3
DA:50,3
DA:51,3
DA:52,3
DA:53,3
DA:56,9800
DA:57,9800
DA:58,9800
DA:60,218828
DA:61,218828
DA:62,218826
DA:64,2
DA:66,218828
DA:69,19151
DA:71,19151
DA:72,63
DA:73,66
DA:74,69
DA:75,68
DA:76,528
DA:77,588
DA:78,1082
DA:79,1201
DA:80,1066
DA:81,1211
DA:82,492
DA:83,599
DA:84,65
DA:85,70
DA:86,60
DA:87,66
DA:88,3
DA:90,19151
DA:92,1
DA:93,1
DA:94,1
DA:95,65
DA:96,64
DA:97,64
DA:98,64
DA:99,1
DA:100,1
DA:102,2
DA:103,2
DA:104,2
DA:106,2
DA:107,2
DA:108,2
DA:110,6558
DA:111,6558
DA:112,6558
DA:113,6558
DA:114,6558
DA:115,6558
DA:117,10232
DA:118,10232
DA:119,10232
DA:120,10232
DA:121,10231
DA:122,10232
DA:124,17744
DA:125,17744
DA:126,17744
DA:127,17742
DA:129,2
DA:131,17744
DA:133,6639
DA:134,6639
DA:135,6639
DA:137,6639
DA:138,6639
DA:139,6639
DA:143,1
DA:144,1
DA:145,1
DA:153,1
DA:154,1
DA:155,1
DA:156,1
DA:157,1
DA:160,1
DA:161,1
DA:162,1
DA:163,1
DA:164,1
DA:167,1
DA:168,1
DA:169,1
DA:170,1
DA:171,1
DA:172,1
DA:175,1
DA:176,1
DA:177,1
DA:178,1
DA:179,1
DA:182,1
DA:183,65
DA:184,64
DA:185,64
DA:186,64
DA:188,1
DA:191,1
DA:192,1
DA:193,1
DA:194,1
DA:197,1
DA:198,1
DA:199,1
DA:200,1
DA:203,1
DA:204,1
DA:205,1
DA:206,1
DA:209,1
DA:210,1
DA:211,1
DA:212,1
DA:213,1
DA:214,1
DA:217,1
DA:218,1
DA:219,1
DA:220,1
DA:221,1
DA:222,1
DA:225,1
DA:226,1
DA:227,1
DA:228,1
DA:229,1
DA:232,1
DA:233,1
DA:234,1
DA:235,1
DA:236,1
DA:237,1
BRF:0
BRH:0
LF:155
LH:154
end_of_record
SF:D:\Cody\src\main.rs
FN:6,_RNvCs4VwtuGktIK5_4Cody4main
FN:6,_RNvCsdycYMYUMDml_4Cody4main
FNDA:0,_RNvCs4VwtuGktIK5_4Cody4main
FNDA:0,_RNvCsdycYMYUMDml_4Cody4main
FNF:1
FNH:0
DA:6,0
DA:7,0
DA:8,0
DA:9,0
BRF:0
BRH:0
LF:4
LH:0
end_of_record
SF:D:\Cody\src\search\engine.rs
FN:72,_RNvMNtNtCsjCmoZIkrVfe_4cody6search6engineINtB2_6EngineNtNtB4_7movegen13SimpleMoveGenNtNtB4_9evaluator17MaterialEvaluatorE11search_nodeCs4VwtuGktIK5_4Cody
FN:20,_RNvMNtNtCsjCmoZIkrVfe_4cody6search6engineINtB2_6EngineNtNtB4_7movegen13SimpleMoveGenNtNtB4_9evaluator17MaterialEvaluatorE3newCs4VwtuGktIK5_4Cody
FN:28,_RNvMNtNtCsjCmoZIkrVfe_4cody6search6engineINtB2_6EngineNtNtB4_7movegen13SimpleMoveGenNtNtB4_9evaluator17MaterialEvaluatorE6searchCs4VwtuGktIK5_4Cody
FN:72,_RNvMNtNtCs1XDxXB27MHs_4cody6search6engineINtB2_6EngineppE11search_nodeB6_
FN:20,_RNvMNtNtCs1XDxXB27MHs_4cody6search6engineINtB2_6EngineppE3newB6_
FN:28,_RNvMNtNtCs1XDxXB27MHs_4cody6search6engineINtB2_6EngineppE6searchB6_
FN:72,_RNvMNtNtCsjCmoZIkrVfe_4cody6search6engineINtB2_6EngineNtNtB4_7movegen13SimpleMoveGenNtNtB4_9evaluator17MaterialEvaluatorE11search_nodeCs12oLCDY6wIW_15generated_tests
FN:20,_RNvMNtNtCsjCmoZIkrVfe_4cody6search6engineINtB2_6EngineNtNtB4_7movegen13SimpleMoveGenNtNtB4_9evaluator17MaterialEvaluatorE3newCs12oLCDY6wIW_15generated_tests
FN:28,_RNvMNtNtCsjCmoZIkrVfe_4cody6search6engineINtB2_6EngineNtNtB4_7movegen13SimpleMoveGenNtNtB4_9evaluator17MaterialEvaluatorE6searchCs12oLCDY6wIW_15generated_tests
FNDA:0,_RNvMNtNtCsjCmoZIkrVfe_4cody6search6engineINtB2_6EngineNtNtB4_7movegen13SimpleMoveGenNtNtB4_9evaluator17MaterialEvaluatorE11search_nodeCs4VwtuGktIK5_4Cody
FNDA:0,_RNvMNtNtCsjCmoZIkrVfe_4cody6search6engineINtB2_6EngineNtNtB4_7movegen13SimpleMoveGenNtNtB4_9evaluator17MaterialEvaluatorE3newCs4VwtuGktIK5_4Cody
FNDA:0,_RNvMNtNtCsjCmoZIkrVfe_4cody6search6engineINtB2_6EngineNtNtB4_7movegen13SimpleMoveGenNtNtB4_9evaluator17MaterialEvaluatorE6searchCs4VwtuGktIK5_4Cody
FNDA:0,_RNvMNtNtCs1XDxXB27MHs_4cody6search6engineINtB2_6EngineppE11search_nodeB6_
FNDA:0,_RNvMNtNtCs1XDxXB27MHs_4cody6search6engineINtB2_6EngineppE3newB6_
FNDA:0,_RNvMNtNtCs1XDxXB27MHs_4cody6search6engineINtB2_6EngineppE6searchB6_
FNDA:203602,_RNvMNtNtCsjCmoZIkrVfe_4cody6search6engineINtB2_6EngineNtNtB4_7movegen13SimpleMoveGenNtNtB4_9evaluator17MaterialEvaluatorE11search_nodeCs12oLCDY6wIW_15generated_tests
FNDA:47,_RNvMNtNtCsjCmoZIkrVfe_4cody6search6engineINtB2_6EngineNtNtB4_7movegen13SimpleMoveGenNtNtB4_9evaluator17MaterialEvaluatorE3newCs12oLCDY6wIW_15generated_tests
FNDA:47,_RNvMNtNtCsjCmoZIkrVfe_4cody6search6engineINtB2_6EngineNtNtB4_7movegen13SimpleMoveGenNtNtB4_9evaluator17MaterialEvaluatorE6searchCs12oLCDY6wIW_15generated_tests
FNF:3
FNH:3
DA:20,47
DA:21,47
DA:22,47
DA:23,47
DA:24,47
DA:25,47
DA:26,47
DA:28,47
DA:29,47
DA:30,47
DA:31,47
DA:33,47
DA:34,47
DA:35,47
DA:38,47
DA:39,0
DA:40,0
DA:42,0
DA:44,0
DA:45,47
DA:47,47
DA:48,47
DA:50,2861
DA:51,2814
DA:52,2814
DA:53,2814
DA:54,2814
DA:55,2814
DA:57,2814
DA:58,47
DA:59,47
DA:60,47
DA:61,2767
DA:62,2719
DA:63,2719
DA:66,47
DA:67,47
DA:69,47
DA:70,47
DA:72,203602
DA:73,203602
DA:75,203602
DA:76,200788
DA:77,2814
DA:79,2814
DA:80,2814
DA:81,2814
DA:84,2814
DA:85,0
DA:86,0
DA:88,0
DA:89,0
DA:90,0
DA:91,2814
DA:93,2814
DA:94,203602
DA:95,200788
DA:96,200788
DA:97,200788
DA:98,200788
DA:99,200788
DA:100,200788
DA:101,200788
DA:103,2814
DA:104,203602
BRF:0
BRH:0
LF:65
LH:56
end_of_record
SF:D:\Cody\src\search\evaluator.rs
FN:27,_RNvXNtNtCsjCmoZIkrVfe_4cody6search9evaluatorNtB2_17MaterialEvaluatorNtB2_9Evaluator8evaluate
FN:27,_RNvXNtNtCs1XDxXB27MHs_4cody6search9evaluatorNtB2_17MaterialEvaluatorNtB2_9Evaluator8evaluate
FNDA:200788,_RNvXNtNtCsjCmoZIkrVfe_4cody6search9evaluatorNtB2_17MaterialEvaluatorNtB2_9Evaluator8evaluate
FNDA:0,_RNvXNtNtCs1XDxXB27MHs_4cody6search9evaluatorNtB2_17MaterialEvaluatorNtB2_9Evaluator8evaluate
FNF:1
FNH:1
DA:27,200788
DA:28,200788
DA:31,1204728
DA:32,200788
DA:33,200788
DA:34,200788
DA:35,200788
DA:36,200788
DA:37,200788
DA:38,1204728
DA:39,1204728
DA:40,1204728
DA:41,1204728
DA:42,1204728
DA:45,1204728
DA:46,200788
DA:47,200788
DA:48,200788
DA:49,200788
DA:50,200788
DA:51,200788
DA:52,1204728
DA:53,1204728
DA:54,1204728
DA:55,1204728
DA:56,1204728
DA:58,200788
DA:59,200788
BRF:0
BRH:0
LF:28
LH:28
end_of_record
SF:D:\Cody\src\search\movegen.rs
FN:120,_RNvNtNtCsjCmoZIkrVfe_4cody6search7movegen14generate_moves
FN:288,_RNvNtNtCsjCmoZIkrVfe_4cody6search7movegen23generate_all_king_moves
FN:138,_RNvNtNtCsjCmoZIkrVfe_4cody6search7movegen23generate_all_pawn_moves
FN:250,_RNvNtNtCsjCmoZIkrVfe_4cody6search7movegen23generate_all_rook_moves
FN:268,_RNvNtNtCsjCmoZIkrVfe_4cody6search7movegen24generate_all_queen_moves
FN:227,_RNvNtNtCsjCmoZIkrVfe_4cody6search7movegen25generate_all_bishop_moves
FN:208,_RNvNtNtCsjCmoZIkrVfe_4cody6search7movegen25generate_all_knight_moves
FN:40,_RNvXNtNtCsjCmoZIkrVfe_4cody6search7movegenNtB2_13SimpleMoveGenNtB2_13MoveGenerator8in_check
FN:120,_RNvNtNtCs1XDxXB27MHs_4cody6search7movegen14generate_moves
FN:288,_RNvNtNtCs1XDxXB27MHs_4cody6search7movegen23generate_all_king_moves
FN:138,_RNvNtNtCs1XDxXB27MHs_4cody6search7movegen23generate_all_pawn_moves
FN:250,_RNvNtNtCs1XDxXB27MHs_4cody6search7movegen23generate_all_rook_moves
FN:268,_RNvNtNtCs1XDxXB27MHs_4cody6search7movegen24generate_all_queen_moves
FN:227,_RNvNtNtCs1XDxXB27MHs_4cody6search7movegen25generate_all_bishop_moves
FN:208,_RNvNtNtCs1XDxXB27MHs_4cody6search7movegen25generate_all_knight_moves
FN:40,_RNvXNtNtCs1XDxXB27MHs_4cody6search7movegenNtB2_13SimpleMoveGenNtB2_13MoveGenerator8in_check
FNDA:2861,_RNvNtNtCsjCmoZIkrVfe_4cody6search7movegen14generate_moves
FNDA:2861,_RNvNtNtCsjCmoZIkrVfe_4cody6search7movegen23generate_all_king_moves
FNDA:2861,_RNvNtNtCsjCmoZIkrVfe_4cody6search7movegen23generate_all_pawn_moves
FNDA:2861,_RNvNtNtCsjCmoZIkrVfe_4cody6search7movegen23generate_all_rook_moves
FNDA:2861,_RNvNtNtCsjCmoZIkrVfe_4cody6search7movegen24generate_all_queen_moves
FNDA:2861,_RNvNtNtCsjCmoZIkrVfe_4cody6search7movegen25generate_all_bishop_moves
FNDA:2861,_RNvNtNtCsjCmoZIkrVfe_4cody6search7movegen25generate_all_knight_moves
FNDA:0,_RNvXNtNtCsjCmoZIkrVfe_4cody6search7movegenNtB2_13SimpleMoveGenNtB2_13MoveGenerator8in_check
FNDA:0,_RNvNtNtCs1XDxXB27MHs_4cody6search7movegen14generate_moves
FNDA:0,_RNvNtNtCs1XDxXB27MHs_4cody6search7movegen23generate_all_king_moves
FNDA:0,_RNvNtNtCs1XDxXB27MHs_4cody6search7movegen23generate_all_pawn_moves
FNDA:0,_RNvNtNtCs1XDxXB27MHs_4cody6search7movegen23generate_all_rook_moves
FNDA:0,_RNvNtNtCs1XDxXB27MHs_4cody6search7movegen24generate_all_queen_moves
FNDA:0,_RNvNtNtCs1XDxXB27MHs_4cody6search7movegen25generate_all_bishop_moves
FNDA:0,_RNvNtNtCs1XDxXB27MHs_4cody6search7movegen25generate_all_knight_moves
FNDA:0,_RNvXNtNtCs1XDxXB27MHs_4cody6search7movegenNtB2_13SimpleMoveGenNtB2_13MoveGenerator8in_check
FNF:8
FNH:7
DA:40,0
DA:41,0
DA:42,0
DA:44,0
DA:45,0
DA:46,0
DA:47,0
DA:49,0
DA:50,0
DA:51,0
DA:54,0
DA:55,0
DA:56,0
DA:57,0
DA:58,0
DA:59,0
DA:60,0
DA:63,0
DA:64,0
DA:65,0
DA:66,0
DA:67,0
DA:69,0
DA:70,0
DA:73,0
DA:74,0
DA:75,0
DA:76,0
DA:77,0
DA:78,0
DA:81,0
DA:82,0
DA:83,0
DA:84,0
DA:85,0
DA:86,0
DA:87,0
DA:88,0
DA:89,0
DA:90,0
DA:91,0
DA:92,0
DA:93,0
DA:94,0
DA:95,0
DA:98,0
DA:99,0
DA:100,0
DA:101,0
DA:102,0
DA:103,0
DA:104,0
DA:105,0
DA:106,0
DA:108,0
DA:109,0
DA:110,0
DA:111,0
DA:112,0
DA:113,0
DA:114,0
DA:116,0
DA:117,0
DA:120,2861
DA:121,2861
DA:122,2861
DA:123,2861
DA:124,2861
DA:125,2861
DA:126,2861
DA:128,2861
DA:129,2861
DA:130,2861
DA:131,2861
DA:132,2861
DA:133,2861
DA:135,2861
DA:136,2861
DA:138,2861
DA:139,2861
DA:140,2861
DA:141,2861
DA:142,2861
DA:143,37
DA:144,2824
DA:146,2824
DA:147,2824
DA:149,2824
DA:150,2824
DA:151,1038
DA:152,1038
DA:153,1038
DA:154,1038
DA:155,1038
DA:156,1038
DA:157,1038
DA:158,1786
DA:159,1786
DA:160,1786
DA:161,1786
DA:162,1786
DA:163,1786
DA:164,1786
DA:168,2824
DA:169,10657
DA:170,10657
DA:171,10657
DA:172,10657
DA:176,2824
DA:177,5296
DA:178,5296
DA:179,5296
DA:180,5296
DA:184,2824
DA:185,2824
DA:186,951
DA:187,951
DA:188,951
DA:192,2824
DA:193,2824
DA:194,836
DA:195,836
DA:196,836
DA:200,2861
DA:208,2861
DA:210,2861
DA:211,2861
DA:212,2861
DA:215,2984
DA:218,2984
DA:221,15169
DA:222,15169
DA:223,15169
DA:225,2861
DA:227,2861
DA:229,2861
DA:230,2861
DA:231,2861
DA:234,2861
DA:237,2676
DA:241,2676
DA:244,17396
DA:245,17396
DA:246,17396
DA:248,2861
DA:250,2861
DA:252,2861
DA:253,2861
DA:254,2861
DA:257,4447
DA:259,4447
DA:262,89553
DA:263,89553
DA:264,89553
DA:266,2861
DA:268,2861
DA:270,2861
DA:271,2861
DA:272,2861
DA:275,2861
DA:277,2192
DA:278,2192
DA:279,2192
DA:282,54718
DA:283,54718
DA:284,54718
DA:286,2861
DA:288,2861
DA:290,2861
DA:291,2861
DA:292,2861
DA:295,2861
DA:298,2861
DA:301,9026
DA:302,9026
DA:303,9026
DA:304,0
DA:307,2861
BRF:0
BRH:0
LF:178
LH:114
end_of_record
SF:D:\Cody\src\test_data.rs
FN:14,_RNvMNtCsjCmoZIkrVfe_4cody9test_dataNtB2_8TestCase8position
FN:18,_RNCNvNtCsjCmoZIkrVfe_4cody9test_data10TEST_CASES0B5_
FN:18,_RNCNvNtCs1XDxXB27MHs_4cody9test_data10TEST_CASES0B5_
FN:14,_RNvMNtCs1XDxXB27MHs_4cody9test_dataNtB2_8TestCase8position
FNDA:47,_RNvMNtCsjCmoZIkrVfe_4cody9test_dataNtB2_8TestCase8position
FNDA:1,_RNCNvNtCsjCmoZIkrVfe_4cody9test_data10TEST_CASES0B5_
FNDA:0,_RNCNvNtCs1XDxXB27MHs_4cody9test_data10TEST_CASES0B5_
FNDA:0,_RNvMNtCs1XDxXB27MHs_4cody9test_dataNtB2_8TestCase8position
FNF:2
FNH:2
DA:14,47
DA:15,47
DA:16,47
DA:18,1
DA:19,1
DA:20,1
DA:21,1
DA:22,1
DA:23,1
DA:24,1
DA:25,1
DA:26,1
DA:27,1
DA:28,1
DA:29,1
DA:30,1
DA:31,1
DA:32,1
DA:33,1
DA:34,1
DA:35,1
DA:36,1
DA:37,1
DA:38,1
DA:39,1
DA:40,1
DA:41,1
DA:42,1
DA:43,1
DA:44,1
DA:45,1
DA:46,1
DA:47,1
DA:48,1
DA:49,1
DA:50,1
DA:51,1
DA:52,1
DA:53,1
DA:54,1
DA:55,1
DA:56,1
DA:57,1
DA:58,1
DA:59,1
DA:60,1
DA:61,1
DA:62,1
DA:63,1
DA:64,1
DA:65,1
DA:66,1
DA:67,1
DA:68,1
DA:69,1
DA:70,1
DA:71,1
DA:72,1
DA:73,1
DA:74,1
DA:75,1
DA:76,1
DA:77,1
DA:78,1
DA:79,1
DA:80,1
DA:81,1
DA:82,1
DA:83,1
DA:84,1
DA:85,1
DA:86,1
DA:87,1
DA:88,1
DA:89,1
DA:90,1
DA:91,1
DA:92,1
DA:93,1
DA:94,1
DA:95,1
DA:96,1
DA:97,1
DA:98,1
DA:99,1
DA:100,1
DA:101,1
DA:102,1
DA:103,1
DA:104,1
DA:105,1
DA:106,1
DA:107,1
DA:108,1
DA:109,1
DA:110,1
DA:111,1
DA:112,1
DA:113,1
DA:114,1
DA:115,1
DA:116,1
DA:117,1
DA:118,1
DA:119,1
DA:120,1
DA:121,1
DA:122,1
DA:123,1
DA:124,1
DA:125,1
DA:126,1
DA:127,1
DA:128,1
DA:129,1
DA:130,1
DA:131,1
DA:132,1
DA:133,1
DA:134,1
DA:135,1
DA:136,1
DA:137,1
DA:138,1
DA:139,1
DA:140,1
DA:141,1
DA:142,1
DA:143,1
DA:144,1
DA:145,1
DA:146,1
DA:147,1
DA:148,1
DA:149,1
DA:150,1
DA:151,1
DA:152,1
DA:153,1
DA:154,1
DA:155,1
DA:156,1
DA:157,1
DA:158,1
DA:159,1
DA:160,1
DA:161,1
DA:162,1
DA:163,1
DA:164,1
DA:165,1
DA:166,1
DA:167,1
DA:168,1
DA:169,1
DA:170,1
DA:171,1
DA:172,1
DA:173,1
DA:174,1
DA:175,1
DA:176,1
DA:177,1
DA:178,1
DA:179,1
DA:180,1
DA:181,1
DA:182,1
DA:183,1
DA:184,1
DA:185,1
DA:186,1
DA:187,1
DA:188,1
DA:189,1
DA:190,1
DA:191,1
DA:192,1
DA:193,1
DA:194,1
DA:195,1
DA:196,1
DA:197,1
DA:198,1
DA:199,1
DA:200,1
DA:201,1
DA:202,1
DA:203,1
DA:204,1
DA:205,1
DA:206,1
DA:207,1
DA:208,1
DA:209,1
DA:210,1
DA:211,1
DA:212,1
DA:213,1
DA:214,1
DA:215,1
DA:216,1
DA:217,1
DA:218,1
DA:219,1
DA:220,1
DA:221,1
DA:222,1
DA:223,1
DA:224,1
DA:225,1
DA:226,1
DA:227,1
DA:228,1
DA:229,1
DA:230,1
DA:231,1
DA:232,1
DA:233,1
DA:234,1
DA:235,1
DA:236,1
DA:237,1
DA:238,1
DA:239,1
DA:240,1
DA:241,1
DA:242,1
DA:243,1
DA:244,1
DA:245,1
DA:246,1
DA:247,1
DA:248,1
DA:249,1
DA:250,1
DA:251,1
DA:252,1
DA:253,1
DA:254,1
DA:255,1
DA:256,1
DA:257,1
DA:258,1
DA:259,1
DA:260,1
DA:261,1
DA:262,1
DA:263,1
DA:264,1
DA:265,1
DA:266,1
DA:267,1
DA:268,1
DA:269,1
DA:270,1
DA:271,1
DA:272,1
DA:273,1
DA:274,1
DA:275,1
DA:276,1
DA:277,1
DA:278,1
DA:279,1
DA:280,1
DA:281,1
DA:282,1
DA:283,1
DA:284,1
DA:285,1
DA:286,1
DA:287,1
DA:288,1
DA:289,1
DA:290,1
DA:291,1
DA:292,1
DA:293,1
DA:294,1
DA:295,1
DA:296,1
DA:297,1
DA:298,1
DA:299,1
DA:300,1
DA:301,1
DA:303,1
BRF:0
BRH:0
LF:288
LH:288
end_of_record